(lp0
ccopy_reg
_reconstructor
p1
(cnrnbfilt
xstruct
p2
c__builtin__
object
p3
Ntp4
Rp5
(dp6
S'x'
p7
I00
sba.(lp0
ccopy_reg
_reconstructor
p1
(cnrnbfilt
xstruct
p2
c__builtin__
object
p3
Ntp4
Rp5
(dp6
S'x'
p7
I00
sba.(lp0
(lp1
ccopy_reg
_reconstructor
p2
(cnrnbfilt
xstruct
p3
c__builtin__
object
p4
Ntp5
Rp6
(dp7
S'x'
p8
I00
sbaa(lp9
g2
(g3
g4
Ntp10
Rp11
(dp12
g8
I00
sbaa.I01
.I01
.I2
.F0.01
.F1.0
.(lp0
(inrnbfilt
WrappedVal
p1
(dp2
S'x'
p3
F10.0
sba.F100.0
.F1.0
.