(lp0
ccopy_reg
_reconstructor
p1
(ctestcr
WOHoc
p2
c__builtin__
object
p3
Ntp4
Rp5
(dp6
S'mle'
p7
cnumpy.core.multiarray
_reconstruct
p8
(cnumpy.core.defmatrix
matrix
p9
(I0
tp10
S'b'
p11
tp12
Rp13
(I1
(I1
I1
tp14
cnumpy
dtype
p15
(S'f8'
p16
I0
I1
tp17
Rp18
(I3
S'<'
p19
NNNI-1
I-1
I0
tp20
bI00
S'b\xe3\xfcT9"B?'
p21
tp22
bsS'ml'
p23
F-9.9580653214327022
sS'precision'
p24
F15.522164227134233
sS'covers'
p25
cnumpy.core.multiarray
scalar
p26
(g15
(S'b1'
p27
I0
I1
tp28
Rp29
(I3
S'|'
p30
NNNI-1
I-1
I0
tp31
bS'\x01'
p32
tp33
Rp34
sS'n'
p35
I0
sS'likefailed'
p36
I01
sS'tl'
p37
F-9.4184439744692092
sS'seed'
p38
I1
sS'modelses'
p39
S'rc128.ses'
p40
sS'H'
p41
g8
(g9
(I0
tp42
g11
tp43
Rp44
(I1
(I1
I1
tp45
g18
I00
S'~\xd4\x94\xaaV\x05UA'
p46
tp47
bsS'CS'
p48
F1.0792426939269859
sS'alpha'
p49
F0.050000000000000003
sS'true'
p50
g8
(g9
(I0
tp51
g11
tp52
Rp53
(I1
(I1
I1
tp54
g18
I00
S'\x00\x00\x00\xe0MbP?'
p55
tp56
bsS'pValue'
p57
g26
(g18
S't\xa6e0\xa3 \xd3?'
p58
tp59
Rp60
sbag1
(g2
g3
Ntp61
Rp62
(dp63
g7
g8
(g9
(I0
tp64
g11
tp65
Rp66
(I1
(I1
I1
tp67
g18
I00
S'\xb5\xe6]S\xe8\xcbF?'
p68
tp69
bsg23
F-30.159072312274365
sg24
F16.535346056874658
sg25
g34
sg35
I0
sg36
I01
sg37
F-29.464467713087615
sg38
I2
sg39
g40
sg41
g8
(g9
(I0
tp70
g11
tp71
Rp72
(I1
(I1
I1
tp73
g18
I00
S'\x86I\xaa(\x0c\xf3lA'
p74
tp75
bsg48
F1.3892091983735
sg49
F0.050000000000000003
sg50
g8
(g9
(I0
tp76
g11
tp77
Rp78
(I1
(I1
I1
tp79
g18
I00
S'\x00\x00\x00\xe0MbP?'
p80
tp81
bsg57
g26
(g18
S'8\xb0\x81\x95o\x88\xce?'
p82
tp83
Rp84
sbag1
(g2
g3
Ntp85
Rp86
(dp87
g7
g8
(g9
(I0
tp88
g11
tp89
Rp90
(I1
(I1
I1
tp91
g18
I00
S'\xd0n\x8f>\xa0DL?'
p92
tp93
bsg23
F-30.700665000817882
sg24
F17.853292936576722
sg25
g34
sg35
I0
sg36
I01
sg37
F-30.167442799602906
sg38
I3
sg39
g40
sg41
g8
(g9
(I0
tp94
g11
tp95
Rp96
(I1
(I1
I1
tp97
g18
I00
S'\x89\x05\xf7xq\t\x8bA'
p98
tp99
bsg48
F1.0664444024299513
sg49
F0.050000000000000003
sg50
g8
(g9
(I0
tp100
g11
tp101
Rp102
(I1
(I1
I1
tp103
g18
I00
S'\x00\x00\x00\xe0MbP?'
p104
tp105
bsg57
g26
(g18
S'\xd0\xcag\n\xdfO\xd3?'
p106
tp107
Rp108
sbag1
(g2
g3
Ntp109
Rp110
(dp111
g7
g8
(g9
(I0
tp112
g11
tp113
Rp114
(I1
(I1
I1
tp115
g18
I00
S'ET\xd3\x19\x08bP?'
p116
tp117
bsg23
F-15.179143358091096
sg24
F19.024895650356139
sg25
g34
sg35
I0
sg36
I01
sg37
F-15.179140318506319
sg38
I4
sg39
g40
sg41
g8
(g9
(I0
tp118
g11
tp119
Rp120
(I1
(I1
I1
tp121
g18
I00
S"0\x92\xbe\x05'\xd0\xa5A"
p122
tp123
bsg48
F6.0791695553064073e-06
sg49
F0.050000000000000003
sg50
g8
(g9
(I0
tp124
g11
tp125
Rp126
(I1
(I1
I1
tp127
g18
I00
S'\x00\x00\x00\xe0MbP?'
p128
tp129
bsg57
g26
(g18
S'\xa7\xc7[[\xe2\xef\xef?'
p130
tp131
Rp132
sbag1
(g2
g3
Ntp133
Rp134
(dp135
g7
g8
(g9
(I0
tp136
g11
tp137
Rp138
(I1
(I1
I1
tp139
g18
I00
S'\xfaF\xfd\xf7\x91\x15P?'
p140
tp141
bsg23
F-24.266232135669682
sg24
F18.365573598022664
sg25
g34
sg35
I0
sg36
I01
sg37
F-24.250057891472192
sg38
I5
sg39
g40
sg41
g8
(g9
(I0
tp142
g11
tp143
Rp144
(I1
(I1
I1
tp145
g18
I00
S'W\xc3\x8a\x98D\x90\x96A'
p146
tp147
bsg48
F0.032348488394980279
sg49
F0.050000000000000003
sg50
g8
(g9
(I0
tp148
g11
tp149
Rp150
(I1
(I1
I1
tp151
g18
I00
S'\x00\x00\x00\xe0MbP?'
p152
tp153
bsg57
g26
(g18
S'\xba\x12\x0f\xe6\xb6n\xeb?'
p154
tp155
Rp156
sbag1
(g2
g3
Ntp157
Rp158
(dp159
g7
g8
(g9
(I0
tp160
g11
tp161
Rp162
(I1
(I1
I1
tp163
g18
I00
S'B6\xf6\xc8\xa5\xbbP?'
p164
tp165
bsg23
F-19.148046264228729
sg24
F18.972864780398663
sg25
g34
sg35
I0
sg36
I01
sg37
F-19.109322484174665
sg38
I6
sg39
g40
sg41
g8
(g9
(I0
tp166
g11
tp167
Rp168
(I1
(I1
I1
tp169
g18
I00
S'f\x0b~\x90\x08\xb5\xa4A'
p170
tp171
bsg48
F0.077447560108126368
sg49
F0.050000000000000003
sg50
g8
(g9
(I0
tp172
g11
tp173
Rp174
(I1
(I1
I1
tp175
g18
I00
S'\x00\x00\x00\xe0MbP?'
p176
tp177
bsg57
g26
(g18
S'3$\xa8R4\xfc\xe8?'
p178
tp179
Rp180
sbag1
(g2
g3
Ntp181
Rp182
(dp183
g7
g8
(g9
(I0
tp184
g11
tp185
Rp186
(I1
(I1
I1
tp187
g18
I00
S'5\xe7\x12\x95\nRS?'
p188
tp189
bsg23
F-22.132545235707425
sg24
F18.798393897179967
sg25
g26
(g29
S'\x00'
p190
tp191
Rp192
sg35
I0
sg36
I01
sg37
F-19.76676668850887
sg38
I7
sg39
g40
sg41
g8
(g9
(I0
tp193
g11
tp194
Rp195
(I1
(I1
I1
tp196
g18
I00
S'\xb0/\xdfMXd\xa1A'
p197
tp198
bsg48
F4.731557094397111
sg49
F0.050000000000000003
sg50
g8
(g9
(I0
tp199
g11
tp200
Rp201
(I1
(I1
I1
tp202
g18
I00
S'\x00\x00\x00\xe0MbP?'
p203
tp204
bsg57
g26
(g18
S'\xf6bz-&S\x9e?'
p205
tp206
Rp207
sbag1
(g2
g3
Ntp208
Rp209
(dp210
g7
g8
(g9
(I0
tp211
g11
tp212
Rp213
(I1
(I1
I1
tp214
g18
I00
S'\x8d\xf6\xfb\xfc\xb4\x93W?'
p215
tp216
bsg23
F-19.414782832435375
sg24
F16.096181343905435
sg25
g34
sg35
I0
sg36
I01
sg37
F-18.45473749761145
sg38
I8
sg39
g40
sg41
g8
(g9
(I0
tp217
g11
tp218
Rp219
(I1
(I1
I1
tp220
g18
I00
S'S\rk\x15\xf9\xa8bA'
p221
tp222
bsg48
F1.9200906696478484
sg49
F0.050000000000000003
sg50
g8
(g9
(I0
tp223
g11
tp224
Rp225
(I1
(I1
I1
tp226
g18
I00
S'\x00\x00\x00\xe0MbP?'
p227
tp228
bsg57
g26
(g18
S'\xf8\xb6\xda\xa9v:\xc5?'
p229
tp230
Rp231
sbag1
(g2
g3
Ntp232
Rp233
(dp234
g7
g8
(g9
(I0
tp235
g11
tp236
Rp237
(I1
(I1
I1
tp238
g18
I00
S'\xe8\xf8&\x16\xa5<9?'
p239
tp240
bsg23
F-29.562898038493163
sg24
F16.123506638323082
sg25
g34
sg35
I0
sg36
I01
sg37
F-27.710619919628805
sg38
I9
sg39
g40
sg41
g8
(g9
(I0
tp241
g11
tp242
Rp243
(I1
(I1
I1
tp244
g18
I00
S'\x8c\xe9\x05\x11N-cA'
p245
tp246
bsg48
F3.7045562377287169
sg49
F0.050000000000000003
sg50
g8
(g9
(I0
tp247
g11
tp248
Rp249
(I1
(I1
I1
tp250
g18
I00
S'\x00\x00\x00\xe0MbP?'
p251
tp252
bsg57
g26
(g18
S'\xfb\xe7\xad\x06\x81\xc8\xab?'
p253
tp254
Rp255
sbag1
(g2
g3
Ntp256
Rp257
(dp258
g7
g8
(g9
(I0
tp259
g11
tp260
Rp261
(I1
(I1
I1
tp262
g18
I00
S'\x99\xa9\xc5\xc2K\xb9L?'
p263
tp264
bsg23
F-26.050035174158616
sg24
F17.704782900703353
sg25
g34
sg35
I0
sg36
I01
sg37
F-25.678427845822398
sg38
I10
sg39
g40
sg41
g8
(g9
(I0
tp265
g11
tp266
Rp267
(I1
(I1
I1
tp268
g18
I00
S'\xa8\x80\xdch9N\x87A'
p269
tp270
bsg48
F0.74321465667243558
sg49
F0.050000000000000003
sg50
g8
(g9
(I0
tp271
g11
tp272
Rp273
(I1
(I1
I1
tp274
g18
I00
S'\x00\x00\x00\xe0MbP?'
p275
tp276
bsg57
g26
(g18
S',\xa2\xf9(]\xdf\xd8?'
p277
tp278
Rp279
sbag1
(g2
g3
Ntp280
Rp281
(dp282
g7
g8
(g9
(I0
tp283
g11
tp284
Rp285
(I1
(I1
I1
tp286
g18
I00
S'jbu\xba\xc7MN?'
p287
tp288
bsg23
F-9.2385972529079581
sg24
F17.478814110676662
sg25
g34
sg35
I0
sg36
I01
sg37
F-9.1291249019764198
sg38
I11
sg39
g40
sg41
g8
(g9
(I0
tp289
g11
tp290
Rp291
(I1
(I1
I1
tp292
g18
I00
S'\xc3\x92>}\x83\x97\x82A'
p293
tp294
bsg48
F0.21894470186307657
sg49
F0.050000000000000003
sg50
g8
(g9
(I0
tp295
g11
tp296
Rp297
(I1
(I1
I1
tp298
g18
I00
S'\x00\x00\x00\xe0MbP?'
p299
tp300
bsg57
g26
(g18
S'F\xed1\x9a\x9cy\xe4?'
p301
tp302
Rp303
sbag1
(g2
g3
Ntp304
Rp305
(dp306
g7
g8
(g9
(I0
tp307
g11
tp308
Rp309
(I1
(I1
I1
tp310
g18
I00
S'\x03^\xa81\xd4\xc8@?'
p311
tp312
bsg23
F-29.76188441144846
sg24
F16.194112946479859
sg25
g34
sg35
I0
sg36
I01
sg37
F-28.503831197959361
sg38
I12
sg39
g40
sg41
g8
(g9
(I0
tp313
g11
tp314
Rp315
(I1
(I1
I1
tp316
g18
I00
S'\x07]_\x8bv\x94dA'
p317
tp318
bsg48
F2.5161064269781974
sg49
F0.050000000000000003
sg50
g8
(g9
(I0
tp319
g11
tp320
Rp321
(I1
(I1
I1
tp322
g18
I00
S'\x00\x00\x00\xe0MbP?'
p323
tp324
bsg57
g26
(g18
S"s\xb9\x8f\x93'\xd9\xbc?"
p325
tp326
Rp327
sbag1
(g2
g3
Ntp328
Rp329
(dp330
g7
g8
(g9
(I0
tp331
g11
tp332
Rp333
(I1
(I1
I1
tp334
g18
I00
S'@|a\x1b\n\x93R?'
p335
tp336
bsg23
F-22.718659770718038
sg24
F17.291744196052836
sg25
g34
sg35
I0
sg36
I01
sg37
F-22.428689420691239
sg38
I13
sg39
g40
sg41
g8
(g9
(I0
tp337
g11
tp338
Rp339
(I1
(I1
I1
tp340
g18
I00
S'\xe5\x19F\x0f\xf2\xd6~A'
p341
tp342
bsg48
F0.57994070005359788
sg49
F0.050000000000000003
sg50
g8
(g9
(I0
tp343
g11
tp344
Rp345
(I1
(I1
I1
tp346
g18
I00
S'\x00\x00\x00\xe0MbP?'
p347
tp348
bsg57
g26
(g18
S'\xa0sF\x0c\xc3\x90\xdc?'
p349
tp350
Rp351
sbag1
(g2
g3
Ntp352
Rp353
(dp354
g7
g8
(g9
(I0
tp355
g11
tp356
Rp357
(I1
(I1
I1
tp358
g18
I00
S'\xf4A\xdec\x829N?'
p359
tp360
bsg23
F-31.121989834199045
sg24
F16.729878787394615
sg25
g34
sg35
I0
sg36
I01
sg37
F-31.066871750589183
sg38
I14
sg39
g40
sg41
g8
(g9
(I0
tp361
g11
tp362
Rp363
(I1
(I1
I1
tp364
g18
I00
S'\x86"\xac\x8aB\x95qA'
p365
tp366
bsg48
F0.11023616721972473
sg49
F0.050000000000000003
sg50
g8
(g9
(I0
tp367
g11
tp368
Rp369
(I1
(I1
I1
tp370
g18
I00
S'\x00\x00\x00\xe0MbP?'
p371
tp372
bsg57
g26
(g18
S'\xa1e\t9\x0f\xad\xe7?'
p373
tp374
Rp375
sbag1
(g2
g3
Ntp376
Rp377
(dp378
g7
g8
(g9
(I0
tp379
g11
tp380
Rp381
(I1
(I1
I1
tp382
g18
I00
S'\xbf\x16\x04;\xef\x96^?'
p383
tp384
bsg23
F-34.846996024550549
sg24
F15.102244083634478
sg25
g34
sg35
I0
sg36
I01
sg37
F-33.434570397683551
sg38
I15
sg39
g40
sg41
g8
(g9
(I0
tp385
g11
tp386
Rp387
(I1
(I1
I1
tp388
g18
I00
S'.\xf3q\xc1%\xa0KA'
p389
tp390
bsg48
F2.8248512537339963
sg49
F0.050000000000000003
sg50
g8
(g9
(I0
tp391
g11
tp392
Rp393
(I1
(I1
I1
tp394
g18
I00
S'\x00\x00\x00\xe0MbP?'
p395
tp396
bsg57
g26
(g18
S'\x11\x7f\xe6\x89\xc1\xc2\xb7?'
p397
tp398
Rp399
sbag1
(g2
g3
Ntp400
Rp401
(dp402
g7
g8
(g9
(I0
tp403
g11
tp404
Rp405
(I1
(I1
I1
tp406
g18
I00
S'\xf4\xdd\xa9\x90[\xa7T?'
p407
tp408
bsg23
F-33.17694789146681
sg24
F16.568951010513295
sg25
g34
sg35
I0
sg36
I01
sg37
F-32.638808966116244
sg38
I16
sg39
g40
sg41
g8
(g9
(I0
tp409
g11
tp410
Rp411
(I1
(I1
I1
tp412
g18
I00
S'^\xe6\xa8\xc9S\xf0mA'
p413
tp414
bsg48
F1.0762778507011319
sg49
F0.050000000000000003
sg50
g8
(g9
(I0
tp415
g11
tp416
Rp417
(I1
(I1
I1
tp418
g18
I00
S'\x00\x00\x00\xe0MbP?'
p419
tp420
bsg57
g26
(g18
S'\x86\xaae\x18\x87+\xd3?'
p421
tp422
Rp423
sbag1
(g2
g3
Ntp424
Rp425
(dp426
g7
g8
(g9
(I0
tp427
g11
tp428
Rp429
(I1
(I1
I1
tp430
g18
I00
S'\xaf\xa2H0\xc7\tO?'
p431
tp432
bsg23
F-24.784503371215376
sg24
F16.963312402007531
sg25
g34
sg35
I0
sg36
I01
sg37
F-24.752080515517846
sg38
I17
sg39
g40
sg41
g8
(g9
(I0
tp433
g11
tp434
Rp435
(I1
(I1
I1
tp436
g18
I00
S'\xc11\xbe\x89\xc54vA'
p437
tp438
bsg48
F0.064845711395058458
sg49
F0.050000000000000003
sg50
g8
(g9
(I0
tp439
g11
tp440
Rp441
(I1
(I1
I1
tp442
g18
I00
S'\x00\x00\x00\xe0MbP?'
p443
tp444
bsg57
g26
(g18
S'\xca5R\x95]\x91\xe9?'
p445
tp446
Rp447
sbag1
(g2
g3
Ntp448
Rp449
(dp450
g7
g8
(g9
(I0
tp451
g11
tp452
Rp453
(I1
(I1
I1
tp454
g18
I00
S'\x0ck\xf8\xa4C\xd5P?'
p455
tp456
bsg23
F-19.658657296852688
sg24
F19.623052640133874
sg25
g34
sg35
I0
sg36
I01
sg37
F-19.535102848980429
sg38
I18
sg39
g40
sg41
g8
(g9
(I0
tp457
g11
tp458
Rp459
(I1
(I1
I1
tp460
g18
I00
S'[_5| \xd6\xb3A'
p461
tp462
bsg48
F0.24710889574451755
sg49
F0.050000000000000003
sg50
g8
(g9
(I0
tp463
g11
tp464
Rp465
(I1
(I1
I1
tp466
g18
I00
S'\x00\x00\x00\xe0MbP?'
p467
tp468
bsg57
g26
(g18
S'\x1ew\\\xf3\xd0\xcf\xe3?'
p469
tp470
Rp471
sbag1
(g2
g3
Ntp472
Rp473
(dp474
g7
g8
(g9
(I0
tp475
g11
tp476
Rp477
(I1
(I1
I1
tp478
g18
I00
S'\x0b\xf5\x02\xadg\x1bE?'
p479
tp480
bsg23
F-45.912221956872948
sg24
F14.878572821139192
sg25
g34
sg35
I0
sg36
I01
sg37
F-45.731445296133977
sg38
I19
sg39
g40
sg41
g8
(g9
(I0
tp481
g11
tp482
Rp483
(I1
(I1
I1
tp484
g18
I00
S'\xbf\x84\x9a\xae\xbb\x16FA'
p485
tp486
bsg48
F0.36155332147794184
sg49
F0.050000000000000003
sg50
g8
(g9
(I0
tp487
g11
tp488
Rp489
(I1
(I1
I1
tp490
g18
I00
S'\x00\x00\x00\xe0MbP?'
p491
tp492
bsg57
g26
(g18
S'r9\xe7oN\x86\xe1?'
p493
tp494
Rp495
sbag1
(g2
g3
Ntp496
Rp497
(dp498
g7
g8
(g9
(I0
tp499
g11
tp500
Rp501
(I1
(I1
I1
tp502
g18
I00
S'"\x15\xa47\xff\xcf_?'
p503
tp504
bsg23
F-22.498456820831393
sg24
F15.123683445243675
sg25
g34
sg35
I0
sg36
I01
sg37
F-20.790099093185599
sg38
I20
sg39
g40
sg41
g8
(g9
(I0
tp505
g11
tp506
Rp507
(I1
(I1
I1
tp508
g18
I00
S"'\xf9\x15&h9LA"
p509
tp510
bsg48
F3.4167154552915875
sg49
F0.050000000000000003
sg50
g8
(g9
(I0
tp511
g11
tp512
Rp513
(I1
(I1
I1
tp514
g18
I00
S'\x00\x00\x00\xe0MbP?'
p515
tp516
bsg57
g26
(g18
S'\xce\xaa\xbf\xd0\xa5\x85\xb0?'
p517
tp518
Rp519
sbag1
(g2
g3
Ntp520
Rp521
(dp522
g7
g8
(g9
(I0
tp523
g11
tp524
Rp525
(I1
(I1
I1
tp526
g18
I00
S's\t\xee%\x7f4X?'
p527
tp528
bsg23
F-22.5660478662789
sg24
F14.801971891883962
sg25
g34
sg35
I0
sg36
I01
sg37
F-22.254461908427235
sg38
I21
sg39
g40
sg41
g8
(g9
(I0
tp529
g11
tp530
Rp531
(I1
(I1
I1
tp532
g18
I00
S'F\x94\x10\xf6\xbfuDA'
p533
tp534
bsg48
F0.62317191570333108
sg49
F0.050000000000000003
sg50
g8
(g9
(I0
tp535
g11
tp536
Rp537
(I1
(I1
I1
tp538
g18
I00
S'\x00\x00\x00\xe0MbP?'
p539
tp540
bsg57
g26
(g18
S' \xb0\xcd\xbb\x01\x83\xdb?'
p541
tp542
Rp543
sbag1
(g2
g3
Ntp544
Rp545
(dp546
g7
g8
(g9
(I0
tp547
g11
tp548
Rp549
(I1
(I1
I1
tp550
g18
I00
S'\x82\x1e}\xa1\xae\x93T?'
p551
tp552
bsg23
F-27.814795888212299
sg24
F17.724642513583035
sg25
g34
sg35
I0
sg36
I01
sg37
F-26.166966365810147
sg38
I22
sg39
g40
sg41
g8
(g9
(I0
tp553
g11
tp554
Rp555
(I1
(I1
I1
tp556
g18
I00
S'/\xac\x19B\xe5\xc5\x87A'
p557
tp558
bsg48
F3.2956590448043031
sg49
F0.050000000000000003
sg50
g8
(g9
(I0
tp559
g11
tp560
Rp561
(I1
(I1
I1
tp562
g18
I00
S'\x00\x00\x00\xe0MbP?'
p563
tp564
bsg57
g26
(g18
S'\x1a\xd1s\x91W\xc8\xb1?'
p565
tp566
Rp567
sbag1
(g2
g3
Ntp568
Rp569
(dp570
g7
g8
(g9
(I0
tp571
g11
tp572
Rp573
(I1
(I1
I1
tp574
g18
I00
S'm\x1a\x85\x8ef\xc6K?'
p575
tp576
bsg23
F-21.67266705277634
sg24
F17.289327008092876
sg25
g34
sg35
I0
sg36
I01
sg37
F-21.299529972522652
sg38
I23
sg39
g40
sg41
g8
(g9
(I0
tp577
g11
tp578
Rp579
(I1
(I1
I1
tp580
g18
I00
S'\x9b\x0f\xee\x90\xe2\xc3~A'
p581
tp582
bsg48
F0.74627416050737594
sg49
F0.050000000000000003
sg50
g8
(g9
(I0
tp583
g11
tp584
Rp585
(I1
(I1
I1
tp586
g18
I00
S'\x00\x00\x00\xe0MbP?'
p587
tp588
bsg57
g26
(g18
S'\x1ef\xbbFe\xcf\xd8?'
p589
tp590
Rp591
sbag1
(g2
g3
Ntp592
Rp593
(dp594
g7
g8
(g9
(I0
tp595
g11
tp596
Rp597
(I1
(I1
I1
tp598
g18
I00
S'Z\xe6\xa5\x12\x04yN?'
p599
tp600
bsg23
F-15.326283723668473
sg24
F17.308906730975924
sg25
g34
sg35
I0
sg36
I01
sg37
F-15.24603676519191
sg38
I24
sg39
g40
sg41
g8
(g9
(I0
tp601
g11
tp602
Rp603
(I1
(I1
I1
tp604
g18
I00
S'\x87P\xf6\xbb\x9c_\x7fA'
p605
tp606
bsg48
F0.16049391695312565
sg49
F0.050000000000000003
sg50
g8
(g9
(I0
tp607
g11
tp608
Rp609
(I1
(I1
I1
tp610
g18
I00
S'\x00\x00\x00\xe0MbP?'
p611
tp612
bsg57
g26
(g18
S'8\n\xc0*\xd9\t\xe6?'
p613
tp614
Rp615
sbag1
(g2
g3
Ntp616
Rp617
(dp618
g7
g8
(g9
(I0
tp619
g11
tp620
Rp621
(I1
(I1
I1
tp622
g18
I00
S'\x85\x93\xdaQ\xdeG`?'
p623
tp624
bsg23
F-23.887217465713167
sg24
F13.904313468247537
sg25
g34
sg35
I0
sg36
I01
sg37
F-23.331405838802137
sg38
I25
sg39
g40
sg41
g8
(g9
(I0
tp625
g11
tp626
Rp627
(I1
(I1
I1
tp628
g18
I00
S'S\xe7\x1a>\x01\xad0A'
p629
tp630
bsg48
F1.1116232538220601
sg49
F0.050000000000000003
sg50
g8
(g9
(I0
tp631
g11
tp632
Rp633
(I1
(I1
I1
tp634
g18
I00
S'\x00\x00\x00\xe0MbP?'
p635
tp636
bsg57
g26
(g18
S'\x94bp\xa0\xb1\xab\xd2?'
p637
tp638
Rp639
sbag1
(g2
g3
Ntp640
Rp641
(dp642
g7
g8
(g9
(I0
tp643
g11
tp644
Rp645
(I1
(I1
I1
tp646
g18
I00
S'\xfd\xc0\xdd\x9b\x94tQ?'
p647
tp648
bsg23
F-14.684526495114307
sg24
F17.262497000893223
sg25
g34
sg35
I0
sg36
I01
sg37
F-14.617471731269157
sg38
I26
sg39
g40
sg41
g8
(g9
(I0
tp649
g11
tp650
Rp651
(I1
(I1
I1
tp652
g18
I00
S'\x1cB\x89ob\xf3}A'
p653
tp654
bsg48
F0.13410952769029905
sg49
F0.050000000000000003
sg50
g8
(g9
(I0
tp655
g11
tp656
Rp657
(I1
(I1
I1
tp658
g18
I00
S'\x00\x00\x00\xe0MbP?'
p659
tp660
bsg57
g26
(g18
S'\x04o\x0f\n\xcc\xda\xe6?'
p661
tp662
Rp663
sbag1
(g2
g3
Ntp664
Rp665
(dp666
g7
g8
(g9
(I0
tp667
g11
tp668
Rp669
(I1
(I1
I1
tp670
g18
I00
S'\xda\x85nn.uQ?'
p671
tp672
bsg23
F-27.107788205077011
sg24
F17.601515196066721
sg25
g34
sg35
I0
sg36
I01
sg37
F-27.013257904089649
sg38
I27
sg39
g40
sg41
g8
(g9
(I0
tp673
g11
tp674
Rp675
(I1
(I1
I1
tp676
g18
I00
S'e+\x9c\xe5\xd9\x04\x85A'
p677
tp678
bsg48
F0.18906060197472385
sg49
F0.050000000000000003
sg50
g8
(g9
(I0
tp679
g11
tp680
Rp681
(I1
(I1
I1
tp682
g18
I00
S'\x00\x00\x00\xe0MbP?'
p683
tp684
bsg57
g26
(g18
S'f\x0c\xdf\xfd\x06=\xe5?'
p685
tp686
Rp687
sbag1
(g2
g3
Ntp688
Rp689
(dp690
g7
g8
(g9
(I0
tp691
g11
tp692
Rp693
(I1
(I1
I1
tp694
g18
I00
S'\xeeK{\xe4 \x92K?'
p695
tp696
bsg23
F-32.486485443149043
sg24
F17.997515089831541
sg25
g34
sg35
I0
sg36
I01
sg37
F-31.665980154057767
sg38
I28
sg39
g40
sg41
g8
(g9
(I0
tp697
g11
tp698
Rp699
(I1
(I1
I1
tp700
g18
I00
S'\x0b\xdf\x7f\xa4=;\x8fA'
p701
tp702
bsg48
F1.6410105781825521
sg49
F0.050000000000000003
sg50
g8
(g9
(I0
tp703
g11
tp704
Rp705
(I1
(I1
I1
tp706
g18
I00
S'\x00\x00\x00\xe0MbP?'
p707
tp708
bsg57
g26
(g18
S'ls\x14,\xb9\x9f\xc9?'
p709
tp710
Rp711
sbag1
(g2
g3
Ntp712
Rp713
(dp714
g7
g8
(g9
(I0
tp715
g11
tp716
Rp717
(I1
(I1
I1
tp718
g18
I00
S'\x90`\x96s\xfa\xb3W?'
p719
tp720
bsg23
F-22.576447745187036
sg24
F15.406556242724704
sg25
g34
sg35
I0
sg36
I01
sg37
F-22.077629671534005
sg38
I29
sg39
g40
sg41
g8
(g9
(I0
tp721
g11
tp722
Rp723
(I1
(I1
I1
tp724
g18
I00
S'I\xff\xb0\xd8\xd3\xb9RA'
p725
tp726
bsg48
F0.99763614730606065
sg49
F0.050000000000000003
sg50
g8
(g9
(I0
tp727
g11
tp728
Rp729
(I1
(I1
I1
tp730
g18
I00
S'\x00\x00\x00\xe0MbP?'
p731
tp732
bsg57
g26
(g18
S'fpx\xa42X\xd4?'
p733
tp734
Rp735
sbag1
(g2
g3
Ntp736
Rp737
(dp738
g7
g8
(g9
(I0
tp739
g11
tp740
Rp741
(I1
(I1
I1
tp742
g18
I00
S'\xfe\xcc\x13;\xd7\xdbO?'
p743
tp744
bsg23
F-18.095576354249648
sg24
F18.482873826530692
sg25
g34
sg35
I0
sg36
I01
sg37
F-18.05414596538283
sg38
I30
sg39
g40
sg41
g8
(g9
(I0
tp745
g11
tp746
Rp747
(I1
(I1
I1
tp748
g18
I00
S'\xc1\xa6\xdc.*_\x99A'
p749
tp750
bsg48
F0.082860777733635871
sg49
F0.050000000000000003
sg50
g8
(g9
(I0
tp751
g11
tp752
Rp753
(I1
(I1
I1
tp754
g18
I00
S'\x00\x00\x00\xe0MbP?'
p755
tp756
bsg57
g26
(g18
S'\xd2I\xb3\xa9)\xc0\xe8?'
p757
tp758
Rp759
sbag1
(g2
g3
Ntp760
Rp761
(dp762
g7
g8
(g9
(I0
tp763
g11
tp764
Rp765
(I1
(I1
I1
tp766
g18
I00
S'\xbf\x0e\xb0\xb4|PT?'
p767
tp768
bsg23
F-29.749559508905023
sg24
F16.388034105838177
sg25
g34
sg35
I0
sg36
I01
sg37
F-29.369427874197495
sg38
I31
sg39
g40
sg41
g8
(g9
(I0
tp769
g11
tp770
Rp771
(I1
(I1
I1
tp772
g18
I00
S'\x0e\xa8\x03\xca\xea\xfbhA'
p773
tp774
bsg48
F0.76026326941505573
sg49
F0.050000000000000003
sg50
g8
(g9
(I0
tp775
g11
tp776
Rp777
(I1
(I1
I1
tp778
g18
I00
S'\x00\x00\x00\xe0MbP?'
p779
tp780
bsg57
g26
(g18
S'\x02:\x8c\xd7\x1a\x87\xd8?'
p781
tp782
Rp783
sbag1
(g2
g3
Ntp784
Rp785
(dp786
g7
g8
(g9
(I0
tp787
g11
tp788
Rp789
(I1
(I1
I1
tp790
g18
I00
S'\x0f-Z\xac\xea]O?'
p791
tp792
bsg23
F-30.567729451427311
sg24
F18.259442272658351
sg25
g34
sg35
I0
sg36
I01
sg37
F-30.489685018654175
sg38
I32
sg39
g40
sg41
g8
(g9
(I0
tp793
g11
tp794
Rp795
(I1
(I1
I1
tp796
g18
I00
S'(\xbf\xa2\xb2\xa2J\x94A'
p797
tp798
bsg48
F0.15608886554627333
sg49
F0.050000000000000003
sg50
g8
(g9
(I0
tp799
g11
tp800
Rp801
(I1
(I1
I1
tp802
g18
I00
S'\x00\x00\x00\xe0MbP?'
p803
tp804
bsg57
g26
(g18
S'\xc9 \x08\xbeG+\xe6?'
p805
tp806
Rp807
sbag1
(g2
g3
Ntp808
Rp809
(dp810
g7
g8
(g9
(I0
tp811
g11
tp812
Rp813
(I1
(I1
I1
tp814
g18
I00
S'\xfb\xedw\x07\x19\xa6L?'
p815
tp816
bsg23
F-32.06167129034656
sg24
F17.468204298806182
sg25
g34
sg35
I0
sg36
I01
sg37
F-31.757432081086954
sg38
I33
sg39
g40
sg41
g8
(g9
(I0
tp817
g11
tp818
Rp819
(I1
(I1
I1
tp820
g18
I00
S'*\x14[tHe\x82A'
p821
tp822
bsg48
F0.60847841851921203
sg49
F0.050000000000000003
sg50
g8
(g9
(I0
tp823
g11
tp824
Rp825
(I1
(I1
I1
tp826
g18
I00
S'\x00\x00\x00\xe0MbP?'
p827
tp828
bsg57
g26
(g18
S'z<\xc9\x97\xf5\xdc\xdb?'
p829
tp830
Rp831
sbag1
(g2
g3
Ntp832
Rp833
(dp834
g7
g8
(g9
(I0
tp835
g11
tp836
Rp837
(I1
(I1
I1
tp838
g18
I00
S'\xac\x16\x83\xc3O\xf4U?'
p839
tp840
bsg23
F-27.622505080393598
sg24
F17.171739424969811
sg25
g34
sg35
I0
sg36
I01
sg37
F-25.942551503874299
sg38
I34
sg39
g40
sg41
g8
(g9
(I0
tp841
g11
tp842
Rp843
(I1
(I1
I1
tp844
g18
I00
S"\xfe\xb1v\xb7'Z{A"
p845
tp846
bsg48
F3.3599071530385984
sg49
F0.050000000000000003
sg50
g8
(g9
(I0
tp847
g11
tp848
Rp849
(I1
(I1
I1
tp850
g18
I00
S'\x00\x00\x00\xe0MbP?'
p851
tp852
bsg57
g26
(g18
S'\xba\x97[\xcf\xec\x19\xb1?'
p853
tp854
Rp855
sbag1
(g2
g3
Ntp856
Rp857
(dp858
g7
g8
(g9
(I0
tp859
g11
tp860
Rp861
(I1
(I1
I1
tp862
g18
I00
S'\xe8p\xbfe4\x11M?'
p863
tp864
bsg23
F-37.091601321408248
sg24
F18.270849407907701
sg25
g34
sg35
I0
sg36
I01
sg37
F-36.543083990964277
sg38
I35
sg39
g40
sg41
g8
(g9
(I0
tp865
g11
tp866
Rp867
(I1
(I1
I1
tp868
g18
I00
S'Q\xc9\xa1\x0f;\x86\x94A'
p869
tp870
bsg48
F1.0970346608879424
sg49
F0.050000000000000003
sg50
g8
(g9
(I0
tp871
g11
tp872
Rp873
(I1
(I1
I1
tp874
g18
I00
S'\x00\x00\x00\xe0MbP?'
p875
tp876
bsg57
g26
(g18
S'xh\x95\xe2\xee\xdf\xd2?'
p877
tp878
Rp879
sbag1
(g2
g3
Ntp880
Rp881
(dp882
g7
g8
(g9
(I0
tp883
g11
tp884
Rp885
(I1
(I1
I1
tp886
g18
I00
S'\x080UxC\xaba?'
p887
tp888
bsg23
F-30.305521406597272
sg24
F15.224058699969492
sg25
g192
sg35
I0
sg36
I01
sg37
F-27.428536591732698
sg38
I36
sg39
g40
sg41
g8
(g9
(I0
tp889
g11
tp890
Rp891
(I1
(I1
I1
tp892
g18
I00
S'\xa3\x08\x95|N4OA'
p893
tp894
bsg48
F5.7539696297291485
sg49
F0.050000000000000003
sg50
g8
(g9
(I0
tp895
g11
tp896
Rp897
(I1
(I1
I1
tp898
g18
I00
S'\x00\x00\x00\xe0MbP?'
p899
tp900
bsg57
g26
(g18
S'\x85\xfdt\x88\xa5\xd8\x90?'
p901
tp902
Rp903
sbag1
(g2
g3
Ntp904
Rp905
(dp906
g7
g8
(g9
(I0
tp907
g11
tp908
Rp909
(I1
(I1
I1
tp910
g18
I00
S'\xc4K<\xf2\xb4<S?'
p911
tp912
bsg23
F-23.943015454041511
sg24
F17.921336897164604
sg25
g34
sg35
I0
sg36
I01
sg37
F-23.014580577607887
sg38
I37
sg39
g40
sg41
g8
(g9
(I0
tp913
g11
tp914
Rp915
(I1
(I1
I1
tp916
g18
I00
S'\x1a\x0b\xe1e\xcc\xf0\x8cA'
p917
tp918
bsg48
F1.8568697528672473
sg49
F0.050000000000000003
sg50
g8
(g9
(I0
tp919
g11
tp920
Rp921
(I1
(I1
I1
tp922
g18
I00
S'\x00\x00\x00\xe0MbP?'
p923
tp924
bsg57
g26
(g18
S',\xaa<\x07l$\xc6?'
p925
tp926
Rp927
sbag1
(g2
g3
Ntp928
Rp929
(dp930
g7
g8
(g9
(I0
tp931
g11
tp932
Rp933
(I1
(I1
I1
tp934
g18
I00
S'`\xbb\x17\xac;\xe2h?'
p935
tp936
bsg23
F-21.85130404225005
sg24
F13.375847242913485
sg25
g34
sg35
I0
sg36
I01
sg37
F-20.391629182976164
sg38
I38
sg39
g40
sg41
g8
(g9
(I0
tp937
g11
tp938
Rp939
(I1
(I1
I1
tp940
g18
I00
S'\xea\xfb\x04\x97:\xa9#A'
p941
tp942
bsg48
F2.919349718547771
sg49
F0.050000000000000003
sg50
g8
(g9
(I0
tp943
g11
tp944
Rp945
(I1
(I1
I1
tp946
g18
I00
S'\x00\x00\x00\xe0MbP?'
p947
tp948
bsg57
g26
(g18
S'\xccE\xc9p\xeag\xb6?'
p949
tp950
Rp951
sbag1
(g2
g3
Ntp952
Rp953
(dp954
g7
g8
(g9
(I0
tp955
g11
tp956
Rp957
(I1
(I1
I1
tp958
g18
I00
S'\xa9,\xfd\x97Q\xd7Q?'
p959
tp960
bsg23
F-22.050387480706721
sg24
F14.744347250757189
sg25
g34
sg35
I0
sg36
I01
sg37
F-22.040388801093194
sg38
I39
sg39
g40
sg41
g8
(g9
(I0
tp961
g11
tp962
Rp963
(I1
(I1
I1
tp964
g18
I00
S'\xc6\xa5S=uPCA'
p965
tp966
bsg48
F0.019997359227055256
sg49
F0.050000000000000003
sg50
g8
(g9
(I0
tp967
g11
tp968
Rp969
(I1
(I1
I1
tp970
g18
I00
S'\x00\x00\x00\xe0MbP?'
p971
tp972
bsg57
g26
(g18
S'\xee\xd6u\xa3\xc3f\xec?'
p973
tp974
Rp975
sbag1
(g2
g3
Ntp976
Rp977
(dp978
g7
g8
(g9
(I0
tp979
g11
tp980
Rp981
(I1
(I1
I1
tp982
g18
I00
S'\x93)W\x05\xf6\xaeI?'
p983
tp984
bsg23
F-32.243972015351716
sg24
F16.618048223489133
sg25
g34
sg35
I0
sg36
I01
sg37
F-31.861436583537422
sg38
I40
sg39
g40
sg41
g8
(g9
(I0
tp985
g11
tp986
Rp987
(I1
(I1
I1
tp988
g18
I00
S'\x9a\xb1\xeb\xd8\x03roA'
p989
tp990
bsg48
F0.76507086362858701
sg49
F0.050000000000000003
sg50
g8
(g9
(I0
tp991
g11
tp992
Rp993
(I1
(I1
I1
tp994
g18
I00
S'\x00\x00\x00\xe0MbP?'
p995
tp996
bsg57
g26
(g18
S'\x9eU\xd6\xd5\x87n\xd8?'
p997
tp998
Rp999
sbag1
(g2
g3
Ntp1000
Rp1001
(dp1002
g7
g8
(g9
(I0
tp1003
g11
tp1004
Rp1005
(I1
(I1
I1
tp1006
g18
I00
S'nCWg \x85M?'
p1007
tp1008
bsg23
F-25.567256764841495
sg24
F18.236712523859953
sg25
g34
sg35
I0
sg36
I01
sg37
F-25.163687736061433
sg38
I41
sg39
g40
sg41
g8
(g9
(I0
tp1009
g11
tp1010
Rp1011
(I1
(I1
I1
tp1012
g18
I00
S'\xfbc<\x01\xe5\xd5\x93A'
p1013
tp1014
bsg48
F0.80713805756012391
sg49
F0.050000000000000003
sg50
g8
(g9
(I0
tp1015
g11
tp1016
Rp1017
(I1
(I1
I1
tp1018
g18
I00
S'\x00\x00\x00\xe0MbP?'
p1019
tp1020
bsg57
g26
(g18
S'\xe2\xee\x08\xde*\x9d\xd7?'
p1021
tp1022
Rp1023
sbag1
(g2
g3
Ntp1024
Rp1025
(dp1026
g7
g8
(g9
(I0
tp1027
g11
tp1028
Rp1029
(I1
(I1
I1
tp1030
g18
I00
S'\x85\xa3\x7fWc\xdfK?'
p1031
tp1032
bsg23
F-24.912187195349848
sg24
F17.583900532949976
sg25
g34
sg35
I0
sg36
I01
sg37
F-24.43053323224737
sg38
I42
sg39
g40
sg41
g8
(g9
(I0
tp1033
g11
tp1034
Rp1035
(I1
(I1
I1
tp1036
g18
I00
S'\x9cFS0\xe6\xa6\x84A'
p1037
tp1038
bsg48
F0.96330792620495487
sg49
F0.050000000000000003
sg50
g8
(g9
(I0
tp1039
g11
tp1040
Rp1041
(I1
(I1
I1
tp1042
g18
I00
S'\x00\x00\x00\xe0MbP?'
p1043
tp1044
bsg57
g26
(g18
S'*\xce\x1dw\xff\xe2\xd4?'
p1045
tp1046
Rp1047
sbag1
(g2
g3
Ntp1048
Rp1049
(dp1050
g7
g8
(g9
(I0
tp1051
g11
tp1052
Rp1053
(I1
(I1
I1
tp1054
g18
I00
S'8\xb1\xa3\x82\x1c\xf4P?'
p1055
tp1056
bsg23
F-36.502181046386788
sg24
F17.507055595357663
sg25
g34
sg35
I0
sg36
I01
sg37
F-36.478112912410403
sg38
I43
sg39
g40
sg41
g8
(g9
(I0
tp1057
g11
tp1058
Rp1059
(I1
(I1
I1
tp1060
g18
I00
S'\xcf\x81\x83l\xd8\x1f\x83A'
p1061
tp1062
bsg48
F0.048136267952770595
sg49
F0.050000000000000003
sg50
g8
(g9
(I0
tp1063
g11
tp1064
Rp1065
(I1
(I1
I1
tp1066
g18
I00
S'\x00\x00\x00\xe0MbP?'
p1067
tp1068
bsg57
g26
(g18
S'\xb2\xcf\xbe\xb7]q\xea?'
p1069
tp1070
Rp1071
sbag1
(g2
g3
Ntp1072
Rp1073
(dp1074
g7
g8
(g9
(I0
tp1075
g11
tp1076
Rp1077
(I1
(I1
I1
tp1078
g18
I00
S'\x95\xae\xb3\xa31NS?'
p1079
tp1080
bsg23
F-25.098136318592559
sg24
F16.010538058485487
sg25
g34
sg35
I0
sg36
I01
sg37
F-24.95402363524488
sg38
I44
sg39
g40
sg41
g8
(g9
(I0
tp1081
g11
tp1082
Rp1083
(I1
(I1
I1
tp1084
g18
I00
S'BCz\x00\xe3 aA'
p1085
tp1086
bsg48
F0.28822536669535737
sg49
F0.050000000000000003
sg50
g8
(g9
(I0
tp1087
g11
tp1088
Rp1089
(I1
(I1
I1
tp1090
g18
I00
S'\x00\x00\x00\xe0MbP?'
p1091
tp1092
bsg57
g26
(g18
S'h\xd7\xa6\xd2k\xec\xe2?'
p1093
tp1094
Rp1095
sbag1
(g2
g3
Ntp1096
Rp1097
(dp1098
g7
g8
(g9
(I0
tp1099
g11
tp1100
Rp1101
(I1
(I1
I1
tp1102
g18
I00
S'\xc8\x1e<\x11\x8c\xb4M?'
p1103
tp1104
bsg23
F-22.835214262155493
sg24
F18.181637815091062
sg25
g34
sg35
I0
sg36
I01
sg37
F-22.495152240220794
sg38
I45
sg39
g40
sg41
g8
(g9
(I0
tp1105
g11
tp1106
Rp1107
(I1
(I1
I1
tp1108
g18
I00
S'\xb9\r\x1c\xf0\xca\xc5\x92A'
p1109
tp1110
bsg48
F0.68012404386939806
sg49
F0.050000000000000003
sg50
g8
(g9
(I0
tp1111
g11
tp1112
Rp1113
(I1
(I1
I1
tp1114
g18
I00
S'\x00\x00\x00\xe0MbP?'
p1115
tp1116
bsg57
g26
(g18
S'\xee\x1c\xe4\x17\xf85\xda?'
p1117
tp1118
Rp1119
sbag1
(g2
g3
Ntp1120
Rp1121
(dp1122
g7
g8
(g9
(I0
tp1123
g11
tp1124
Rp1125
(I1
(I1
I1
tp1126
g18
I00
S'\xf3I`f\x87\xc3R?'
p1127
tp1128
bsg23
F-20.904423774432463
sg24
F16.621708569715661
sg25
g34
sg35
I0
sg36
I01
sg37
F-20.729021547576515
sg38
I46
sg39
g40
sg41
g8
(g9
(I0
tp1129
g11
tp1130
Rp1131
(I1
(I1
I1
tp1132
g18
I00
S'\x17\x92\xdd\xec\x88\x8foA'
p1133
tp1134
bsg48
F0.35080445371189484
sg49
F0.050000000000000003
sg50
g8
(g9
(I0
tp1135
g11
tp1136
Rp1137
(I1
(I1
I1
tp1138
g18
I00
S'\x00\x00\x00\xe0MbP?'
p1139
tp1140
bsg57
g26
(g18
S'\xd5\xfe\xbf1\x91\xb7\xe1?'
p1141
tp1142
Rp1143
sbag1
(g2
g3
Ntp1144
Rp1145
(dp1146
g7
g8
(g9
(I0
tp1147
g11
tp1148
Rp1149
(I1
(I1
I1
tp1150
g18
I00
S'\x8b\xbf?\x0c\r\xdfP?'
p1151
tp1152
bsg23
F-29.091034811987043
sg24
F18.479600018590119
sg25
g34
sg35
I0
sg36
I01
sg37
F-29.044585645700611
sg38
I47
sg39
g40
sg41
g8
(g9
(I0
tp1153
g11
tp1154
Rp1155
(I1
(I1
I1
tp1156
g18
I00
S'\x95\xa2\x17\x85\xefI\x99A'
p1157
tp1158
bsg48
F0.092898332572865172
sg49
F0.050000000000000003
sg50
g8
(g9
(I0
tp1159
g11
tp1160
Rp1161
(I1
(I1
I1
tp1162
g18
I00
S'\x00\x00\x00\xe0MbP?'
p1163
tp1164
bsg57
g26
(g18
S'\x1b\xfa\x8a07V\xe8?'
p1165
tp1166
Rp1167
sbag1
(g2
g3
Ntp1168
Rp1169
(dp1170
g7
g8
(g9
(I0
tp1171
g11
tp1172
Rp1173
(I1
(I1
I1
tp1174
g18
I00
S'\xce\x90\x8d\xd9$\x08R?'
p1175
tp1176
bsg23
F-27.561060537881581
sg24
F18.517337024295419
sg25
g34
sg35
I0
sg36
I01
sg37
F-27.004035505677816
sg38
I48
sg39
g40
sg41
g8
(g9
(I0
tp1177
g11
tp1178
Rp1179
(I1
(I1
I1
tp1180
g18
I00
S'\xb2\x93\r+\xe9B\x9aA'
p1181
tp1182
bsg48
F1.1140500644075289
sg49
F0.050000000000000003
sg50
g8
(g9
(I0
tp1183
g11
tp1184
Rp1185
(I1
(I1
I1
tp1186
g18
I00
S'\x00\x00\x00\xe0MbP?'
p1187
tp1188
bsg57
g26
(g18
S'\x96We\xf0\x12\xa3\xd2?'
p1189
tp1190
Rp1191
sbag1
(g2
g3
Ntp1192
Rp1193
(dp1194
g7
g8
(g9
(I0
tp1195
g11
tp1196
Rp1197
(I1
(I1
I1
tp1198
g18
I00
S'\x0e6\x03\x88\xd5\x04W?'
p1199
tp1200
bsg23
F-24.75626685979843
sg24
F16.956507396413528
sg25
g192
sg35
I0
sg36
I01
sg37
F-22.828544623504413
sg38
I49
sg39
g40
sg41
g8
(g9
(I0
tp1201
g11
tp1202
Rp1203
(I1
(I1
I1
tp1204
g18
I00
S'\x0f1\xa1\xd27\x0evA'
p1205
tp1206
bsg48
F3.855444472588033
sg49
F0.050000000000000003
sg50
g8
(g9
(I0
tp1207
g11
tp1208
Rp1209
(I1
(I1
I1
tp1210
g18
I00
S'\x00\x00\x00\xe0MbP?'
p1211
tp1212
bsg57
g26
(g18
S'\x9b\x97\xa7_-c\xa9?'
p1213
tp1214
Rp1215
sbag1
(g2
g3
Ntp1216
Rp1217
(dp1218
g7
g8
(g9
(I0
tp1219
g11
tp1220
Rp1221
(I1
(I1
I1
tp1222
g18
I00
S"\xbe'\xa9\xe6?G:?"
p1223
tp1224
bsg23
F-26.982360466162305
sg24
F16.247329656340813
sg25
g192
sg35
I0
sg36
I01
sg37
F-24.991369041105987
sg38
I50
sg39
g40
sg41
g8
(g9
(I0
tp1225
g11
tp1226
Rp1227
(I1
(I1
I1
tp1228
g18
I00
S'\xd8\xc7\xe5ym\xb4eA'
p1229
tp1230
bsg48
F3.9819828501126366
sg49
F0.050000000000000003
sg50
g8
(g9
(I0
tp1231
g11
tp1232
Rp1233
(I1
(I1
I1
tp1234
g18
I00
S'\x00\x00\x00\xe0MbP?'
p1235
tp1236
bsg57
g26
(g18
S'\xf2\xd9\xc1\x08\xec\x8b\xa7?'
p1237
tp1238
Rp1239
sbag1
(g2
g3
Ntp1240
Rp1241
(dp1242
g7
g8
(g9
(I0
tp1243
g11
tp1244
Rp1245
(I1
(I1
I1
tp1246
g18
I00
S'h\xa3\x7f\xe5[[Q?'
p1247
tp1248
bsg23
F-20.994733144233216
sg24
F19.372131861969493
sg25
g34
sg35
I0
sg36
I01
sg37
F-20.538696948769825
sg38
I51
sg39
g40
sg41
g8
(g9
(I0
tp1249
g11
tp1250
Rp1251
(I1
(I1
I1
tp1252
g18
I00
S'\xa2\xe3\x95.k\xde\xaeA'
p1253
tp1254
bsg48
F0.91207239092678094
sg49
F0.050000000000000003
sg50
g8
(g9
(I0
tp1255
g11
tp1256
Rp1257
(I1
(I1
I1
tp1258
g18
I00
S'\x00\x00\x00\xe0MbP?'
p1259
tp1260
bsg57
g26
(g18
S'\xe8\xc0@wo\xbb\xd5?'
p1261
tp1262
Rp1263
sbag1
(g2
g3
Ntp1264
Rp1265
(dp1266
g7
g8
(g9
(I0
tp1267
g11
tp1268
Rp1269
(I1
(I1
I1
tp1270
g18
I00
S'\x15\x16\xe7}\xc1@O?'
p1271
tp1272
bsg23
F-15.961678553749222
sg24
F18.930785817280398
sg25
g34
sg35
I0
sg36
I01
sg37
F-15.783363078628055
sg38
I52
sg39
g40
sg41
g8
(g9
(I0
tp1273
g11
tp1274
Rp1275
(I1
(I1
I1
tp1276
g18
I00
S'3\x8a]t\x99\xda\xa3A'
p1277
tp1278
bsg48
F0.35663095024233371
sg49
F0.050000000000000003
sg50
g8
(g9
(I0
tp1279
g11
tp1280
Rp1281
(I1
(I1
I1
tp1282
g18
I00
S'\x00\x00\x00\xe0MbP?'
p1283
tp1284
bsg57
g26
(g18
S'\x8ei\xd5o\xbd\x9c\xe1?'
p1285
tp1286
Rp1287
sbag1
(g2
g3
Ntp1288
Rp1289
(dp1290
g7
g8
(g9
(I0
tp1291
g11
tp1292
Rp1293
(I1
(I1
I1
tp1294
g18
I00
S'--\xe7\x00\xdd=M?'
p1295
tp1296
bsg23
F-35.061643462929105
sg24
F17.178423872727294
sg25
g34
sg35
I0
sg36
I01
sg37
F-34.894538242886938
sg38
I53
sg39
g40
sg41
g8
(g9
(I0
tp1297
g11
tp1298
Rp1299
(I1
(I1
I1
tp1300
g18
I00
S'\xeb\xfeS\x12\x1e\x89{A'
p1301
tp1302
bsg48
F0.33421044008433398
sg49
F0.050000000000000003
sg50
g8
(g9
(I0
tp1303
g11
tp1304
Rp1305
(I1
(I1
I1
tp1306
g18
I00
S'\x00\x00\x00\xe0MbP?'
p1307
tp1308
bsg57
g26
(g18
S'\x02\x89\x1d\xa1\xa7\x05\xe2?'
p1309
tp1310
Rp1311
sbag1
(g2
g3
Ntp1312
Rp1313
(dp1314
g7
g8
(g9
(I0
tp1315
g11
tp1316
Rp1317
(I1
(I1
I1
tp1318
g18
I00
S'\x9e\xb3\x93\x1f\xab~G?'
p1319
tp1320
bsg23
F-16.376760386271378
sg24
F15.850989158931785
sg25
g34
sg35
I0
sg36
I01
sg37
F-16.073439052455594
sg38
I54
sg39
g40
sg41
g8
(g9
(I0
tp1321
g11
tp1322
Rp1323
(I1
(I1
I1
tp1324
g18
I00
S'\x8f\xa4%\xd8z4]A'
p1325
tp1326
bsg48
F0.6066426676315686
sg49
F0.050000000000000003
sg50
g8
(g9
(I0
tp1327
g11
tp1328
Rp1329
(I1
(I1
I1
tp1330
g18
I00
S'\x00\x00\x00\xe0MbP?'
p1331
tp1332
bsg57
g26
(g18
S'z\xa3\x93\x06R\xe8\xdb?'
p1333
tp1334
Rp1335
sbag1
(g2
g3
Ntp1336
Rp1337
(dp1338
g7
g8
(g9
(I0
tp1339
g11
tp1340
Rp1341
(I1
(I1
I1
tp1342
g18
I00
S';j9\xce\x19RR?'
p1343
tp1344
bsg23
F-20.493226097855647
sg24
F18.416054563227476
sg25
g34
sg35
I0
sg36
I01
sg37
F-19.796670297155817
sg38
I55
sg39
g40
sg41
g8
(g9
(I0
tp1345
g11
tp1346
Rp1347
(I1
(I1
I1
tp1348
g18
I00
S'\x84BmIX\xbb\x97A'
p1349
tp1350
bsg48
F1.3931116013996601
sg49
F0.050000000000000003
sg50
g8
(g9
(I0
tp1351
g11
tp1352
Rp1353
(I1
(I1
I1
tp1354
g18
I00
S'\x00\x00\x00\xe0MbP?'
p1355
tp1356
bsg57
g26
(g18
S'\xdc\xa6\xdf\xcf\xdcr\xce?'
p1357
tp1358
Rp1359
sbag1
(g2
g3
Ntp1360
Rp1361
(dp1362
g7
g8
(g9
(I0
tp1363
g11
tp1364
Rp1365
(I1
(I1
I1
tp1366
g18
I00
S'NM\x9c\xed \xb2R?'
p1367
tp1368
bsg23
F-16.808036694346914
sg24
F18.622175414876761
sg25
g34
sg35
I0
sg36
I01
sg37
F-15.58502185771318
sg38
I56
sg39
g40
sg41
g8
(g9
(I0
tp1369
g11
tp1370
Rp1371
(I1
(I1
I1
tp1372
g18
I00
S'F?Xo\x00*\x9dA'
p1373
tp1374
bsg48
F2.4460296732674678
sg49
F0.050000000000000003
sg50
g8
(g9
(I0
tp1375
g11
tp1376
Rp1377
(I1
(I1
I1
tp1378
g18
I00
S'\x00\x00\x00\xe0MbP?'
p1379
tp1380
bsg57
g26
(g18
S'\x1c\xa01W\x9e)\xbe?'
p1381
tp1382
Rp1383
sbag1
(g2
g3
Ntp1384
Rp1385
(dp1386
g7
g8
(g9
(I0
tp1387
g11
tp1388
Rp1389
(I1
(I1
I1
tp1390
g18
I00
S'\x84\xe7\xc6\xc6v\x85K?'
p1391
tp1392
bsg23
F-15.264789846262488
sg24
F16.75393116149791
sg25
g34
sg35
I0
sg36
I01
sg37
F-15.023691715974095
sg38
I57
sg39
g40
sg41
g8
(g9
(I0
tp1393
g11
tp1394
Rp1395
(I1
(I1
I1
tp1396
g18
I00
S'W\x0cY\xa4\xd6\x02rA'
p1397
tp1398
bsg48
F0.48219626057678511
sg49
F0.050000000000000003
sg50
g8
(g9
(I0
tp1399
g11
tp1400
Rp1401
(I1
(I1
I1
tp1402
g18
I00
S'\x00\x00\x00\xe0MbP?'
p1403
tp1404
bsg57
g26
(g18
S'\xee\xa7]*\n2\xdf?'
p1405
tp1406
Rp1407
sbag1
(g2
g3
Ntp1408
Rp1409
(dp1410
g7
g8
(g9
(I0
tp1411
g11
tp1412
Rp1413
(I1
(I1
I1
tp1414
g18
I00
S'\xfb\xbc\xf5{X\xfeU?'
p1415
tp1416
bsg23
F-35.052199521954037
sg24
F17.10419195513763
sg25
g34
sg35
I0
sg36
I01
sg37
F-33.45965047472604
sg38
I58
sg39
g40
sg41
g8
(g9
(I0
tp1417
g11
tp1418
Rp1419
(I1
(I1
I1
tp1420
g18
I00
S'\x95\x0f~>\xcc\x90yA'
p1421
tp1422
bsg48
F3.185098094455995
sg49
F0.050000000000000003
sg50
g8
(g9
(I0
tp1423
g11
tp1424
Rp1425
(I1
(I1
I1
tp1426
g18
I00
S'\x00\x00\x00\xe0MbP?'
p1427
tp1428
bsg57
g26
(g18
S'[\x83\xe2{%\x06\xb3?'
p1429
tp1430
Rp1431
sbag1
(g2
g3
Ntp1432
Rp1433
(dp1434
g7
g8
(g9
(I0
tp1435
g11
tp1436
Rp1437
(I1
(I1
I1
tp1438
g18
I00
S'\xe2Y\xcfA\xd7\x16R?'
p1439
tp1440
bsg23
F-13.032175303875546
sg24
F19.057738732156398
sg25
g34
sg35
I0
sg36
I01
sg37
F-12.007808446576794
sg38
I59
sg39
g40
sg41
g8
(g9
(I0
tp1441
g11
tp1442
Rp1443
(I1
(I1
I1
tp1444
g18
I00
S'\xbdN\xea!\x99\x8a\xa6A'
p1445
tp1446
bsg48
F2.0487337145975033
sg49
F0.050000000000000003
sg50
g8
(g9
(I0
tp1447
g11
tp1448
Rp1449
(I1
(I1
I1
tp1450
g18
I00
S'\x00\x00\x00\xe0MbP?'
p1451
tp1452
bsg57
g26
(g18
S'\xff\x99/\x82\xa4\x7f\xc3?'
p1453
tp1454
Rp1455
sbag1
(g2
g3
Ntp1456
Rp1457
(dp1458
g7
g8
(g9
(I0
tp1459
g11
tp1460
Rp1461
(I1
(I1
I1
tp1462
g18
I00
S'\xfcco\xf0\xf0uR?'
p1463
tp1464
bsg23
F-24.006770134930086
sg24
F17.408890797039586
sg25
g34
sg35
I0
sg36
I01
sg37
F-23.713965101394173
sg38
I60
sg39
g40
sg41
g8
(g9
(I0
tp1465
g11
tp1466
Rp1467
(I1
(I1
I1
tp1468
g18
I00
S'\x83\xcf\t\xd8\x14V\x81A'
p1469
tp1470
bsg48
F0.58561006707182628
sg49
F0.050000000000000003
sg50
g8
(g9
(I0
tp1471
g11
tp1472
Rp1473
(I1
(I1
I1
tp1474
g18
I00
S'\x00\x00\x00\xe0MbP?'
p1475
tp1476
bsg57
g26
(g18
S'Z\x07\x87~}l\xdc?'
p1477
tp1478
Rp1479
sbag1
(g2
g3
Ntp1480
Rp1481
(dp1482
g7
g8
(g9
(I0
tp1483
g11
tp1484
Rp1485
(I1
(I1
I1
tp1486
g18
I00
S'\xe4&r\xfa\x00\xd4N?'
p1487
tp1488
bsg23
F-33.298757619998334
sg24
F18.207689337415683
sg25
g34
sg35
I0
sg36
I01
sg37
F-33.157518165020143
sg38
I61
sg39
g40
sg41
g8
(g9
(I0
tp1489
g11
tp1490
Rp1491
(I1
(I1
I1
tp1492
g18
I00
S'F\xb3\xd7\xd0\xa2D\x93A'
p1493
tp1494
bsg48
F0.28247890995638159
sg49
F0.050000000000000003
sg50
g8
(g9
(I0
tp1495
g11
tp1496
Rp1497
(I1
(I1
I1
tp1498
g18
I00
S'\x00\x00\x00\xe0MbP?'
p1499
tp1500
bsg57
g26
(g18
S'@@;b\xe7\n\xe3?'
p1501
tp1502
Rp1503
sbag1
(g2
g3
Ntp1504
Rp1505
(dp1506
g7
g8
(g9
(I0
tp1507
g11
tp1508
Rp1509
(I1
(I1
I1
tp1510
g18
I00
S'\xbd\xa7\r\x0c\xc5\xc2P?'
p1511
tp1512
bsg23
F-25.676210104588119
sg24
F17.554685264606629
sg25
g34
sg35
I0
sg36
I01
sg37
F-25.665258951100405
sg38
I62
sg39
g40
sg41
g8
(g9
(I0
tp1513
g11
tp1514
Rp1515
(I1
(I1
I1
tp1516
g18
I00
S'0\xd1r\xea\xac\x0e\x84A'
p1517
tp1518
bsg48
F0.021902306975427166
sg49
F0.050000000000000003
sg50
g8
(g9
(I0
tp1519
g11
tp1520
Rp1521
(I1
(I1
I1
tp1522
g18
I00
S'\x00\x00\x00\xe0MbP?'
p1523
tp1524
bsg57
g26
(g18
S'\xaco!^0<\xec?'
p1525
tp1526
Rp1527
sbag1
(g2
g3
Ntp1528
Rp1529
(dp1530
g7
g8
(g9
(I0
tp1531
g11
tp1532
Rp1533
(I1
(I1
I1
tp1534
g18
I00
S'r\x1b\xea\xef\xd6zS?'
p1535
tp1536
bsg23
F-27.348915480659777
sg24
F14.990150404966579
sg25
g34
sg35
I0
sg36
I01
sg37
F-27.290788873798341
sg38
I63
sg39
g40
sg41
g8
(g9
(I0
tp1537
g11
tp1538
Rp1539
(I1
(I1
I1
tp1540
g18
I00
S',\xcb\xa5v8\xb2HA'
p1541
tp1542
bsg48
F0.1162532137228709
sg49
F0.050000000000000003
sg50
g8
(g9
(I0
tp1543
g11
tp1544
Rp1545
(I1
(I1
I1
tp1546
g18
I00
S'\x00\x00\x00\xe0MbP?'
p1547
tp1548
bsg57
g26
(g18
S'\xba\xb7I\xf8\xd5u\xe7?'
p1549
tp1550
Rp1551
sbag1
(g2
g3
Ntp1552
Rp1553
(dp1554
g7
g8
(g9
(I0
tp1555
g11
tp1556
Rp1557
(I1
(I1
I1
tp1558
g18
I00
S'\xa9T\x00\xf3\xd7&Q?'
p1559
tp1560
bsg23
F-29.889738140674389
sg24
F18.636616556457358
sg25
g34
sg35
I0
sg36
I01
sg37
F-29.753688564124648
sg38
I64
sg39
g40
sg41
g8
(g9
(I0
tp1561
g11
tp1562
Rp1563
(I1
(I1
I1
tp1564
g18
I00
S'\xdbbR\xff\x99\x96\x9dA'
p1565
tp1566
bsg48
F0.27209915309948229
sg49
F0.050000000000000003
sg50
g8
(g9
(I0
tp1567
g11
tp1568
Rp1569
(I1
(I1
I1
tp1570
g18
I00
S'\x00\x00\x00\xe0MbP?'
p1571
tp1572
bsg57
g26
(g18
S'\x8b\xfci\xa2\xfcB\xe3?'
p1573
tp1574
Rp1575
sbag1
(g2
g3
Ntp1576
Rp1577
(dp1578
g7
g8
(g9
(I0
tp1579
g11
tp1580
Rp1581
(I1
(I1
I1
tp1582
g18
I00
S'\xfd\x80Q&\xdcy]?'
p1583
tp1584
bsg23
F-15.697776981224747
sg24
F15.13031933258412
sg25
g34
sg35
I0
sg36
I01
sg37
F-14.467618054732242
sg38
I65
sg39
g40
sg41
g8
(g9
(I0
tp1585
g11
tp1586
Rp1587
(I1
(I1
I1
tp1588
g18
I00
S'B\x97\xa9d\x83iLA'
p1589
tp1590
bsg48
F2.4603178529850105
sg49
F0.050000000000000003
sg50
g8
(g9
(I0
tp1591
g11
tp1592
Rp1593
(I1
(I1
I1
tp1594
g18
I00
S'\x00\x00\x00\xe0MbP?'
p1595
tp1596
bsg57
g26
(g18
S'$\x0f\xebm\xaa\xe3\xbd?'
p1597
tp1598
Rp1599
sbag1
(g2
g3
Ntp1600
Rp1601
(dp1602
g7
g8
(g9
(I0
tp1603
g11
tp1604
Rp1605
(I1
(I1
I1
tp1606
g18
I00
S'\xba|\xe7\x05^\xdeS?'
p1607
tp1608
bsg23
F-28.872341048591096
sg24
F16.386387204668818
sg25
g34
sg35
I0
sg36
I01
sg37
F-28.57445812629825
sg38
I66
sg39
g40
sg41
g8
(g9
(I0
tp1609
g11
tp1610
Rp1611
(I1
(I1
I1
tp1612
g18
I00
S'\x18\xf3erd\xf1hA'
p1613
tp1614
bsg48
F0.59576584458569215
sg49
F0.050000000000000003
sg50
g8
(g9
(I0
tp1615
g11
tp1616
Rp1617
(I1
(I1
I1
tp1618
g18
I00
S'\x00\x00\x00\xe0MbP?'
p1619
tp1620
bsg57
g26
(g18
S'Z&L\xc04,\xdc?'
p1621
tp1622
Rp1623
sbag1
(g2
g3
Ntp1624
Rp1625
(dp1626
g7
g8
(g9
(I0
tp1627
g11
tp1628
Rp1629
(I1
(I1
I1
tp1630
g18
I00
S'\x8a\xaa\xb8\xbbegK?'
p1631
tp1632
bsg23
F-12.35720578995511
sg24
F18.774380413191661
sg25
g34
sg35
I0
sg36
I01
sg37
F-10.457028843778415
sg38
I67
sg39
g40
sg41
g8
(g9
(I0
tp1633
g11
tp1634
Rp1635
(I1
(I1
I1
tp1636
g18
I00
S'\xfd\x7f\x95\xbe\xb3\xfa\xa0A'
p1637
tp1638
bsg48
F3.8003538923533888
sg49
F0.050000000000000003
sg50
g8
(g9
(I0
tp1639
g11
tp1640
Rp1641
(I1
(I1
I1
tp1642
g18
I00
S'\x00\x00\x00\xe0MbP?'
p1643
tp1644
bsg57
g26
(g18
S'\xbdR\x15\xde[<\xaa?'
p1645
tp1646
Rp1647
sbag1
(g2
g3
Ntp1648
Rp1649
(dp1650
g7
g8
(g9
(I0
tp1651
g11
tp1652
Rp1653
(I1
(I1
I1
tp1654
g18
I00
S'C@$\xe3\xe2IO?'
p1655
tp1656
bsg23
F-13.863353046296059
sg24
F17.42876503638389
sg25
g34
sg35
I0
sg36
I01
sg37
F-13.825477598335549
sg38
I68
sg39
g40
sg41
g8
(g9
(I0
tp1657
g11
tp1658
Rp1659
(I1
(I1
I1
tp1660
g18
I00
S'4o\x1c\xd0*\xaf\x81A'
p1661
tp1662
bsg48
F0.075750895921018468
sg49
F0.050000000000000003
sg50
g8
(g9
(I0
tp1663
g11
tp1664
Rp1665
(I1
(I1
I1
tp1666
g18
I00
S'\x00\x00\x00\xe0MbP?'
p1667
tp1668
bsg57
g26
(g18
S'3\x11P\x93|\x0f\xe9?'
p1669
tp1670
Rp1671
sbag1
(g2
g3
Ntp1672
Rp1673
(dp1674
g7
g8
(g9
(I0
tp1675
g11
tp1676
Rp1677
(I1
(I1
I1
tp1678
g18
I00
S'\xe1;\xcf\xbe\xbc\xc6N?'
p1679
tp1680
bsg23
F-25.853034028382464
sg24
F17.018835324499932
sg25
g34
sg35
I0
sg36
I01
sg37
F-25.807709257911796
sg38
I69
sg39
g40
sg41
g8
(g9
(I0
tp1681
g11
tp1682
Rp1683
(I1
(I1
I1
tp1684
g18
I00
S'Z\x81\x00nUywA'
p1685
tp1686
bsg48
F0.09064954094133526
sg49
F0.050000000000000003
sg50
g8
(g9
(I0
tp1687
g11
tp1688
Rp1689
(I1
(I1
I1
tp1690
g18
I00
S'\x00\x00\x00\xe0MbP?'
p1691
tp1692
bsg57
g26
(g18
S'\xd0\xde\x8cNcm\xe8?'
p1693
tp1694
Rp1695
sbag1
(g2
g3
Ntp1696
Rp1697
(dp1698
g7
g8
(g9
(I0
tp1699
g11
tp1700
Rp1701
(I1
(I1
I1
tp1702
g18
I00
S'h*\x85\xc3\x1faK?'
p1703
tp1704
bsg23
F-26.120478927974712
sg24
F17.649590205933404
sg25
g34
sg35
I0
sg36
I01
sg37
F-25.497823210746603
sg38
I70
sg39
g40
sg41
g8
(g9
(I0
tp1705
g11
tp1706
Rp1707
(I1
(I1
I1
tp1708
g18
I00
S"6'%\xc8\xda\r\x86A"
p1709
tp1710
bsg48
F1.2453114344562195
sg49
F0.050000000000000003
sg50
g8
(g9
(I0
tp1711
g11
tp1712
Rp1713
(I1
(I1
I1
tp1714
g18
I00
S'\x00\x00\x00\xe0MbP?'
p1715
tp1716
bsg57
g26
(g18
S'\xa6\x7f\xfc\x1b\xbf\xec\xd0?'
p1717
tp1718
Rp1719
sbag1
(g2
g3
Ntp1720
Rp1721
(dp1722
g7
g8
(g9
(I0
tp1723
g11
tp1724
Rp1725
(I1
(I1
I1
tp1726
g18
I00
S'\x82\xb25 \x0c\xecR?'
p1727
tp1728
bsg23
F-30.086994265163828
sg24
F18.043571282896401
sg25
g34
sg35
I0
sg36
I01
sg37
F-29.258993339331344
sg38
I71
sg39
g40
sg41
g8
(g9
(I0
tp1729
g11
tp1730
Rp1731
(I1
(I1
I1
tp1732
g18
I00
S'\xf7O\xc3\x8e\nZ\x90A'
p1733
tp1734
bsg48
F1.6560018516649677
sg49
F0.050000000000000003
sg50
g8
(g9
(I0
tp1735
g11
tp1736
Rp1737
(I1
(I1
I1
tp1738
g18
I00
S'\x00\x00\x00\xe0MbP?'
p1739
tp1740
bsg57
g26
(g18
S'|\xd0\xc9p\xc8\\\xc9?'
p1741
tp1742
Rp1743
sbag1
(g2
g3
Ntp1744
Rp1745
(dp1746
g7
g8
(g9
(I0
tp1747
g11
tp1748
Rp1749
(I1
(I1
I1
tp1750
g18
I00
S'\xe4\xeb(^\x97\xf6L?'
p1751
tp1752
bsg23
F-19.904059590113132
sg24
F17.749009210678476
sg25
g34
sg35
I0
sg36
I01
sg37
F-19.560092314371619
sg38
I72
sg39
g40
sg41
g8
(g9
(I0
tp1753
g11
tp1754
Rp1755
(I1
(I1
I1
tp1756
g18
I00
S'97x\x9b\x02\\\x88A'
p1757
tp1758
bsg48
F0.68793455148302485
sg49
F0.050000000000000003
sg50
g8
(g9
(I0
tp1759
g11
tp1760
Rp1761
(I1
(I1
I1
tp1762
g18
I00
S'\x00\x00\x00\xe0MbP?'
p1763
tp1764
bsg57
g26
(g18
S'\x8a{-D\x1f\n\xda?'
p1765
tp1766
Rp1767
sbag1
(g2
g3
Ntp1768
Rp1769
(dp1770
g7
g8
(g9
(I0
tp1771
g11
tp1772
Rp1773
(I1
(I1
I1
tp1774
g18
I00
S'\x968e\xefu\xbaR?'
p1775
tp1776
bsg23
F-28.514622846453378
sg24
F18.263203122113715
sg25
g34
sg35
I0
sg36
I01
sg37
F-27.636035600382037
sg38
I73
sg39
g40
sg41
g8
(g9
(I0
tp1777
g11
tp1778
Rp1779
(I1
(I1
I1
tp1780
g18
I00
S'\xf4\xfebd5^\x94A'
p1781
tp1782
bsg48
F1.7571744921426813
sg49
F0.050000000000000003
sg50
g8
(g9
(I0
tp1783
g11
tp1784
Rp1785
(I1
(I1
I1
tp1786
g18
I00
S'\x00\x00\x00\xe0MbP?'
p1787
tp1788
bsg57
g26
(g18
S' q\x0fZV\xad\xc7?'
p1789
tp1790
Rp1791
sbag1
(g2
g3
Ntp1792
Rp1793
(dp1794
g7
g8
(g9
(I0
tp1795
g11
tp1796
Rp1797
(I1
(I1
I1
tp1798
g18
I00
S'3k8\xb5<\xfaI?'
p1799
tp1800
bsg23
F-27.01180181595624
sg24
F18.078803159991228
sg25
g34
sg35
I0
sg36
I01
sg37
F-25.496746880449063
sg38
I74
sg39
g40
sg41
g8
(g9
(I0
tp1801
g11
tp1802
Rp1803
(I1
(I1
I1
tp1804
g18
I00
S',\xd87\xf3&\xf0\x90A'
p1805
tp1806
bsg48
F3.0301098710143535
sg49
F0.050000000000000003
sg50
g8
(g9
(I0
tp1807
g11
tp1808
Rp1809
(I1
(I1
I1
tp1810
g18
I00
S'\x00\x00\x00\xe0MbP?'
p1811
tp1812
bsg57
g26
(g18
S'\x1b\xdf(\x80k\xec\xb4?'
p1813
tp1814
Rp1815
sbag1
(g2
g3
Ntp1816
Rp1817
(dp1818
g7
g8
(g9
(I0
tp1819
g11
tp1820
Rp1821
(I1
(I1
I1
tp1822
g18
I00
S'\x9c\x03e  EW?'
p1823
tp1824
bsg23
F-28.919574175836264
sg24
F14.709480123767193
sg25
g34
sg35
I0
sg36
I01
sg37
F-28.699917032815478
sg38
I75
sg39
g40
sg41
g8
(g9
(I0
tp1825
g11
tp1826
Rp1827
(I1
(I1
I1
tp1828
g18
I00
S'N*\x89\xa2\x07\xa7BA'
p1829
tp1830
bsg48
F0.43931428604157219
sg49
F0.050000000000000003
sg50
g8
(g9
(I0
tp1831
g11
tp1832
Rp1833
(I1
(I1
I1
tp1834
g18
I00
S'\x00\x00\x00\xe0MbP?'
p1835
tp1836
bsg57
g26
(g18
S'\xfe\xa7JX\x0f=\xe0?'
p1837
tp1838
Rp1839
sbag1
(g2
g3
Ntp1840
Rp1841
(dp1842
g7
g8
(g9
(I0
tp1843
g11
tp1844
Rp1845
(I1
(I1
I1
tp1846
g18
I00
S'\xac1\xf3\xf0q\xe9Q?'
p1847
tp1848
bsg23
F-31.647952992227825
sg24
F16.629118972211987
sg25
g34
sg35
I0
sg36
I01
sg37
F-31.575516272091043
sg38
I76
sg39
g40
sg41
g8
(g9
(I0
tp1849
g11
tp1850
Rp1851
(I1
(I1
I1
tp1852
g18
I00
S'\xdd\xa5j>\xa1\xcboA'
p1853
tp1854
bsg48
F0.14487344027356386
sg49
F0.050000000000000003
sg50
g8
(g9
(I0
tp1855
g11
tp1856
Rp1857
(I1
(I1
I1
tp1858
g18
I00
S'\x00\x00\x00\xe0MbP?'
p1859
tp1860
bsg57
g26
(g18
S'T\x8aC\xae\xef\x82\xe6?'
p1861
tp1862
Rp1863
sbag1
(g2
g3
Ntp1864
Rp1865
(dp1866
g7
g8
(g9
(I0
tp1867
g11
tp1868
Rp1869
(I1
(I1
I1
tp1870
g18
I00
S'"\xffc\xa8\xe8\x97R?'
p1871
tp1872
bsg23
F-33.242187132666956
sg24
F18.068751097458151
sg25
g34
sg35
I0
sg36
I01
sg37
F-32.600425657089794
sg38
I77
sg39
g40
sg41
g8
(g9
(I0
tp1873
g11
tp1874
Rp1875
(I1
(I1
I1
tp1876
g18
I00
S'\x9d\x8d\xc6\x80\xc8\xc4\x90A'
p1877
tp1878
bsg48
F1.2835229511543247
sg49
F0.050000000000000003
sg50
g8
(g9
(I0
tp1879
g11
tp1880
Rp1881
(I1
(I1
I1
tp1882
g18
I00
S'\x00\x00\x00\xe0MbP?'
p1883
tp1884
bsg57
g26
(g18
S'\xb4}\xf4\xd9\xb3v\xd0?'
p1885
tp1886
Rp1887
sbag1
(g2
g3
Ntp1888
Rp1889
(dp1890
g7
g8
(g9
(I0
tp1891
g11
tp1892
Rp1893
(I1
(I1
I1
tp1894
g18
I00
S'\x05\xa4\xd6\x1f\xcdDN?'
p1895
tp1896
bsg23
F-34.299722861814331
sg24
F17.172860808603257
sg25
g34
sg35
I0
sg36
I01
sg37
F-34.216812608619577
sg38
I78
sg39
g40
sg41
g8
(g9
(I0
tp1897
g11
tp1898
Rp1899
(I1
(I1
I1
tp1900
g18
I00
S'+\x1cx\xfb\x02b{A'
p1901
tp1902
bsg48
F0.16582050638950818
sg49
F0.050000000000000003
sg50
g8
(g9
(I0
tp1903
g11
tp1904
Rp1905
(I1
(I1
I1
tp1906
g18
I00
S'\x00\x00\x00\xe0MbP?'
p1907
tp1908
bsg57
g26
(g18
S'\xe8\xb3\xa8I \xe2\xe5?'
p1909
tp1910
Rp1911
sbag1
(g2
g3
Ntp1912
Rp1913
(dp1914
g7
g8
(g9
(I0
tp1915
g11
tp1916
Rp1917
(I1
(I1
I1
tp1918
g18
I00
S'3\xdb:\x01\x8c1U?'
p1919
tp1920
bsg23
F-28.797613834674365
sg24
F16.056834288931782
sg25
g34
sg35
I0
sg36
I01
sg37
F-28.387803888178588
sg38
I79
sg39
g40
sg41
g8
(g9
(I0
tp1921
g11
tp1922
Rp1923
(I1
(I1
I1
tp1924
g18
I00
S'\xe0\xd7u\xb8\xa9\xf0aA'
p1925
tp1926
bsg48
F0.81961989299155391
sg49
F0.050000000000000003
sg50
g8
(g9
(I0
tp1927
g11
tp1928
Rp1929
(I1
(I1
I1
tp1930
g18
I00
S'\x00\x00\x00\xe0MbP?'
p1931
tp1932
bsg57
g26
(g18
S'\x16\xf8\x1c\xdc\xee`\xd7?'
p1933
tp1934
Rp1935
sbag1
(g2
g3
Ntp1936
Rp1937
(dp1938
g7
g8
(g9
(I0
tp1939
g11
tp1940
Rp1941
(I1
(I1
I1
tp1942
g18
I00
S"t '&x\x8bR?"
p1943
tp1944
bsg23
F-35.759140933817655
sg24
F18.061646291887055
sg25
g34
sg35
I0
sg36
I01
sg37
F-35.149849017770826
sg38
I80
sg39
g40
sg41
g8
(g9
(I0
tp1945
g11
tp1946
Rp1947
(I1
(I1
I1
tp1948
g18
I00
S'\x9e\xe9\x87Td\xa6\x90A'
p1949
tp1950
bsg48
F1.2185838320936568
sg49
F0.050000000000000003
sg50
g8
(g9
(I0
tp1951
g11
tp1952
Rp1953
(I1
(I1
I1
tp1954
g18
I00
S'\x00\x00\x00\xe0MbP?'
p1955
tp1956
bsg57
g26
(g18
S'F\xcbB\xe8\xc2A\xd1?'
p1957
tp1958
Rp1959
sbag1
(g2
g3
Ntp1960
Rp1961
(dp1962
g7
g8
(g9
(I0
tp1963
g11
tp1964
Rp1965
(I1
(I1
I1
tp1966
g18
I00
S'\x18\xe5`\x7f\xf9\xf8K?'
p1967
tp1968
bsg23
F-17.225277788189512
sg24
F16.692665930127976
sg25
g34
sg35
I0
sg36
I01
sg37
F-17.035668441973101
sg38
I81
sg39
g40
sg41
g8
(g9
(I0
tp1969
g11
tp1970
Rp1971
(I1
(I1
I1
tp1972
g18
I00
S'|\xd2Zc\xd5\xf0pA'
p1973
tp1974
bsg48
F0.37921869243282202
sg49
F0.050000000000000003
sg50
g8
(g9
(I0
tp1975
g11
tp1976
Rp1977
(I1
(I1
I1
tp1978
g18
I00
S'\x00\x00\x00\xe0MbP?'
p1979
tp1980
bsg57
g26
(g18
S'\x89*\xc0;y7\xe1?'
p1981
tp1982
Rp1983
sbag1
(g2
g3
Ntp1984
Rp1985
(dp1986
g7
g8
(g9
(I0
tp1987
g11
tp1988
Rp1989
(I1
(I1
I1
tp1990
g18
I00
S'\xde\x9e\x03\r\x900U?'
p1991
tp1992
bsg23
F-10.98531965381609
sg24
F16.393422463928431
sg25
g34
sg35
I0
sg36
I01
sg37
F-10.412454954904376
sg38
I82
sg39
g40
sg41
g8
(g9
(I0
tp1993
g11
tp1994
Rp1995
(I1
(I1
I1
tp1996
g18
I00
S'\x925oAy\x1eiA'
p1997
tp1998
bsg48
F1.1457293978234269
sg49
F0.050000000000000003
sg50
g8
(g9
(I0
tp1999
g11
tp2000
Rp2001
(I1
(I1
I1
tp2002
g18
I00
S'\x00\x00\x00\xe0MbP?'
p2003
tp2004
bsg57
g26
(g18
S'b\x9fm{X4\xd2?'
p2005
tp2006
Rp2007
sbag1
(g2
g3
Ntp2008
Rp2009
(dp2010
g7
g8
(g9
(I0
tp2011
g11
tp2012
Rp2013
(I1
(I1
I1
tp2014
g18
I00
S'\x9axy\xbb\xc4\x13O?'
p2015
tp2016
bsg23
F-24.139942984902675
sg24
F17.022154717410601
sg25
g34
sg35
I0
sg36
I01
sg37
F-24.10707535228245
sg38
I83
sg39
g40
sg41
g8
(g9
(I0
tp2017
g11
tp2018
Rp2019
(I1
(I1
I1
tp2020
g18
I00
S'\xef\xfa\xednP\x8dwA'
p2021
tp2022
bsg48
F0.065735265240448371
sg49
F0.050000000000000003
sg50
g8
(g9
(I0
tp2023
g11
tp2024
Rp2025
(I1
(I1
I1
tp2026
g18
I00
S'\x00\x00\x00\xe0MbP?'
p2027
tp2028
bsg57
g26
(g18
S"\x1b'\xccxZ\x86\xe9?"
p2029
tp2030
Rp2031
sbag1
(g2
g3
Ntp2032
Rp2033
(dp2034
g7
g8
(g9
(I0
tp2035
g11
tp2036
Rp2037
(I1
(I1
I1
tp2038
g18
I00
S'\xdd\x9c\x0f\x12\x06\xbcM?'
p2039
tp2040
bsg23
F-42.625009481765524
sg24
F17.3277702529961
sg25
g34
sg35
I0
sg36
I01
sg37
F-42.482945426784454
sg38
I84
sg39
g40
sg41
g8
(g9
(I0
tp2041
g11
tp2042
Rp2043
(I1
(I1
I1
tp2044
g18
I00
S'\x8e_\x14\x02\x8e\xf8\x7fA'
p2045
tp2046
bsg48
F0.28412810996213977
sg49
F0.050000000000000003
sg50
g8
(g9
(I0
tp2047
g11
tp2048
Rp2049
(I1
(I1
I1
tp2050
g18
I00
S'\x00\x00\x00\xe0MbP?'
p2051
tp2052
bsg57
g26
(g18
S'\x90J\xc0s\x1d\x02\xe3?'
p2053
tp2054
Rp2055
sbag1
(g2
g3
Ntp2056
Rp2057
(dp2058
g7
g8
(g9
(I0
tp2059
g11
tp2060
Rp2061
(I1
(I1
I1
tp2062
g18
I00
S'\xc3xw+|\xc2W?'
p2063
tp2064
bsg23
F-26.053750375913012
sg24
F15.63548907209114
sg25
g34
sg35
I0
sg36
I01
sg37
F-25.416686999453386
sg38
I85
sg39
g40
sg41
g8
(g9
(I0
tp2065
g11
tp2066
Rp2067
(I1
(I1
I1
tp2068
g18
I00
S'>\x91\xfcu\x13\x8bWA'
p2069
tp2070
bsg48
F1.2741267529192513
sg49
F0.050000000000000003
sg50
g8
(g9
(I0
tp2071
g11
tp2072
Rp2073
(I1
(I1
I1
tp2074
g18
I00
S'\x00\x00\x00\xe0MbP?'
p2075
tp2076
bsg57
g26
(g18
S'\xaa\x11\xdeE[\x93\xd0?'
p2077
tp2078
Rp2079
sbag1
(g2
g3
Ntp2080
Rp2081
(dp2082
g7
g8
(g9
(I0
tp2083
g11
tp2084
Rp2085
(I1
(I1
I1
tp2086
g18
I00
S'\x00=\x94\xd4{\xaf@?'
p2087
tp2088
bsg23
F-29.27621252751949
sg24
F15.924906064049578
sg25
g34
sg35
I0
sg36
I01
sg37
F-28.303328085454297
sg38
I86
sg39
g40
sg41
g8
(g9
(I0
tp2089
g11
tp2090
Rp2091
(I1
(I1
I1
tp2092
g18
I00
S'\xe9\r\xe61\x0er_A'
p2093
tp2094
bsg48
F1.9457688841303877
sg49
F0.050000000000000003
sg50
g8
(g9
(I0
tp2095
g11
tp2096
Rp2097
(I1
(I1
I1
tp2098
g18
I00
S'\x00\x00\x00\xe0MbP?'
p2099
tp2100
bsg57
g26
(g18
S'\xe8\x99[6\x9c\xde\xc4?'
p2101
tp2102
Rp2103
sbag1
(g2
g3
Ntp2104
Rp2105
(dp2106
g7
g8
(g9
(I0
tp2107
g11
tp2108
Rp2109
(I1
(I1
I1
tp2110
g18
I00
S'}\x85\xc4e"\xbfO?'
p2111
tp2112
bsg23
F-28.807783028930849
sg24
F16.738890175716257
sg25
g34
sg35
I0
sg36
I01
sg37
F-28.798667859168727
sg38
I87
sg39
g40
sg41
g8
(g9
(I0
tp2113
g11
tp2114
Rp2115
(I1
(I1
I1
tp2116
g18
I00
S'\xbe<\xe5~\x01\xbeqA'
p2117
tp2118
bsg48
F0.018230339524244243
sg49
F0.050000000000000003
sg50
g8
(g9
(I0
tp2119
g11
tp2120
Rp2121
(I1
(I1
I1
tp2122
g18
I00
S'\x00\x00\x00\xe0MbP?'
p2123
tp2124
bsg57
g26
(g18
S'\xc2\xdc:\xfd%\x90\xec?'
p2125
tp2126
Rp2127
sbag1
(g2
g3
Ntp2128
Rp2129
(dp2130
g7
g8
(g9
(I0
tp2131
g11
tp2132
Rp2133
(I1
(I1
I1
tp2134
g18
I00
S'\xb7W\xc2\x06\xe1\xb8G?'
p2135
tp2136
bsg23
F-24.271976646292124
sg24
F15.79158913673605
sg25
g34
sg35
I0
sg36
I01
sg37
F-23.999900591939387
sg38
I88
sg39
g40
sg41
g8
(g9
(I0
tp2137
g11
tp2138
Rp2139
(I1
(I1
I1
tp2140
g18
I00
S'g\xfaC0O\x85[A'
p2141
tp2142
bsg48
F0.54415210870547526
sg49
F0.050000000000000003
sg50
g8
(g9
(I0
tp2143
g11
tp2144
Rp2145
(I1
(I1
I1
tp2146
g18
I00
S'\x00\x00\x00\xe0MbP?'
p2147
tp2148
bsg57
g26
(g18
S'\n\xad!Lc|\xdd?'
p2149
tp2150
Rp2151
sbag1
(g2
g3
Ntp2152
Rp2153
(dp2154
g7
g8
(g9
(I0
tp2155
g11
tp2156
Rp2157
(I1
(I1
I1
tp2158
g18
I00
S'\x125\x03\x19\x9c\x99Q?'
p2159
tp2160
bsg23
F-21.356637596373055
sg24
F14.86400284062907
sg25
g34
sg35
I0
sg36
I01
sg37
F-21.348789721428766
sg38
I89
sg39
g40
sg41
g8
(g9
(I0
tp2161
g11
tp2162
Rp2163
(I1
(I1
I1
tp2164
g18
I00
S'\xc3-\xcb\xea\xf0\xc4EA'
p2165
tp2166
bsg48
F0.015695749888578803
sg49
F0.050000000000000003
sg50
g8
(g9
(I0
tp2167
g11
tp2168
Rp2169
(I1
(I1
I1
tp2170
g18
I00
S'\x00\x00\x00\xe0MbP?'
p2171
tp2172
bsg57
g26
(g18
S'.5#sA\xcf\xec?'
p2173
tp2174
Rp2175
sbag1
(g2
g3
Ntp2176
Rp2177
(dp2178
g7
g8
(g9
(I0
tp2179
g11
tp2180
Rp2181
(I1
(I1
I1
tp2182
g18
I00
S'9\xb4\xa8\xacV\xf6P?'
p2183
tp2184
bsg23
F-28.781243748263662
sg24
F18.043348152030518
sg25
g34
sg35
I0
sg36
I01
sg37
F-28.738817157396074
sg38
I90
sg39
g40
sg41
g8
(g9
(I0
tp2185
g11
tp2186
Rp2187
(I1
(I1
I1
tp2188
g18
I00
S'\x05i\xacx\x1bY\x90A'
p2189
tp2190
bsg48
F0.084853181735176975
sg49
F0.050000000000000003
sg50
g8
(g9
(I0
tp2191
g11
tp2192
Rp2193
(I1
(I1
I1
tp2194
g18
I00
S'\x00\x00\x00\xe0MbP?'
p2195
tp2196
bsg57
g26
(g18
S'\xb0\xd1S\x91\x99\xaa\xe8?'
p2197
tp2198
Rp2199
sbag1
(g2
g3
Ntp2200
Rp2201
(dp2202
g7
g8
(g9
(I0
tp2203
g11
tp2204
Rp2205
(I1
(I1
I1
tp2206
g18
I00
S'fLQ\xef\x83XP?'
p2207
tp2208
bsg23
F6.9354275110465764
sg24
F19.126408979342234
sg25
g34
sg35
I0
sg36
I01
sg37
F6.9360845657442152
sg38
I91
sg39
g40
sg41
g8
(g9
(I0
tp2209
g11
tp2210
Rp2211
(I1
(I1
I1
tp2212
g18
I00
S'xK\xb2\x13\xca$\xa8A'
p2213
tp2214
bsg48
F0.0013141093952775407
sg49
F0.050000000000000003
sg50
g8
(g9
(I0
tp2215
g11
tp2216
Rp2217
(I1
(I1
I1
tp2218
g18
I00
S'\x00\x00\x00\xe0MbP?'
p2219
tp2220
bsg57
g26
(g18
S'\x9a \x92\x9c\x1b\x13\xef?'
p2221
tp2222
Rp2223
sbag1
(g2
g3
Ntp2224
Rp2225
(dp2226
g7
g8
(g9
(I0
tp2227
g11
tp2228
Rp2229
(I1
(I1
I1
tp2230
g18
I00
S'h\xdd\x9d\xb5\x81\xefM?'
p2231
tp2232
bsg23
F-21.938970900040687
sg24
F16.709066702265059
sg25
g34
sg35
I0
sg36
I01
sg37
F-21.872168810304384
sg38
I92
sg39
g40
sg41
g8
(g9
(I0
tp2233
g11
tp2234
Rp2235
(I1
(I1
I1
tp2236
g18
I00
S'\xd2\x94\n%\x8c8qA'
p2237
tp2238
bsg48
F0.13360417947260572
sg49
F0.050000000000000003
sg50
g8
(g9
(I0
tp2239
g11
tp2240
Rp2241
(I1
(I1
I1
tp2242
g18
I00
S'\x00\x00\x00\xe0MbP?'
p2243
tp2244
bsg57
g26
(g18
S'\x92\xd3\xfd\xd5\x04\xdf\xe6?'
p2245
tp2246
Rp2247
sbag1
(g2
g3
Ntp2248
Rp2249
(dp2250
g7
g8
(g9
(I0
tp2251
g11
tp2252
Rp2253
(I1
(I1
I1
tp2254
g18
I00
S'\xc3\x84\x99\x8d\x19/P?'
p2255
tp2256
bsg23
F-26.850905253727962
sg24
F18.529182289128475
sg25
g34
sg35
I0
sg36
I01
sg37
F-26.842312943629292
sg38
I93
sg39
g40
sg41
g8
(g9
(I0
tp2257
g11
tp2258
Rp2259
(I1
(I1
I1
tp2260
g18
I00
S'\xe1\xf9Q\xdc\x04\x93\x9aA'
p2261
tp2262
bsg48
F0.017184620197340905
sg49
F0.050000000000000003
sg50
g8
(g9
(I0
tp2263
g11
tp2264
Rp2265
(I1
(I1
I1
tp2266
g18
I00
S'\x00\x00\x00\xe0MbP?'
p2267
tp2268
bsg57
g26
(g18
S'z\xe9[w\x9b\xa9\xec?'
p2269
tp2270
Rp2271
sbag1
(g2
g3
Ntp2272
Rp2273
(dp2274
g7
g8
(g9
(I0
tp2275
g11
tp2276
Rp2277
(I1
(I1
I1
tp2278
g18
I00
S'TB\xfe\x18\xf22P?'
p2279
tp2280
bsg23
F-21.337786191946059
sg24
F19.047846662623854
sg25
g34
sg35
I0
sg36
I01
sg37
F-21.325402152635625
sg38
I94
sg39
g40
sg41
g8
(g9
(I0
tp2281
g11
tp2282
Rp2283
(I1
(I1
I1
tp2284
g18
I00
S'\xdb\xecO\xe2\xcbQ\xa6A'
p2285
tp2286
bsg48
F0.024768078620866163
sg49
F0.050000000000000003
sg50
g8
(g9
(I0
tp2287
g11
tp2288
Rp2289
(I1
(I1
I1
tp2290
g18
I00
S'\x00\x00\x00\xe0MbP?'
p2291
tp2292
bsg57
g26
(g18
S'\x16\xb1\xd3w\x8f\xff\xeb?'
p2293
tp2294
Rp2295
sbag1
(g2
g3
Ntp2296
Rp2297
(dp2298
g7
g8
(g9
(I0
tp2299
g11
tp2300
Rp2301
(I1
(I1
I1
tp2302
g18
I00
S'\x8b\x16\xc0a]\xfaQ?'
p2303
tp2304
bsg23
F-22.370233614203286
sg24
F16.522803902106791
sg25
g34
sg35
I0
sg36
I01
sg37
F-22.299323571529467
sg38
I95
sg39
g40
sg41
g8
(g9
(I0
tp2305
g11
tp2306
Rp2307
(I1
(I1
I1
tp2308
g18
I00
S'\xd5\xbd\x1an\xad\x96lA'
p2309
tp2310
bsg48
F0.14182008534763924
sg49
F0.050000000000000003
sg50
g8
(g9
(I0
tp2311
g11
tp2312
Rp2313
(I1
(I1
I1
tp2314
g18
I00
S'\x00\x00\x00\xe0MbP?'
p2315
tp2316
bsg57
g26
(g18
S'\\9\xdcMx\x9b\xe6?'
p2317
tp2318
Rp2319
sbag1
(g2
g3
Ntp2320
Rp2321
(dp2322
g7
g8
(g9
(I0
tp2323
g11
tp2324
Rp2325
(I1
(I1
I1
tp2326
g18
I00
S'i\x81\xae\xfd\xb86X?'
p2327
tp2328
bsg23
F-11.312055668835118
sg24
F14.521527314414003
sg25
g34
sg35
I0
sg36
I01
sg37
F-11.07610957350925
sg38
I96
sg39
g40
sg41
g8
(g9
(I0
tp2329
g11
tp2330
Rp2331
(I1
(I1
I1
tp2332
g18
I00
S'7\xce\x95}\xb1\xe9>A'
p2333
tp2334
bsg48
F0.4718921906517366
sg49
F0.050000000000000003
sg50
g8
(g9
(I0
tp2335
g11
tp2336
Rp2337
(I1
(I1
I1
tp2338
g18
I00
S'\x00\x00\x00\xe0MbP?'
p2339
tp2340
bsg57
g26
(g18
S'\x1a\xe0\xc7Q\xdc~\xdf?'
p2341
tp2342
Rp2343
sbag1
(g2
g3
Ntp2344
Rp2345
(dp2346
g7
g8
(g9
(I0
tp2347
g11
tp2348
Rp2349
(I1
(I1
I1
tp2350
g18
I00
S'\x97=\xddz\x19\x01O?'
p2351
tp2352
bsg23
F-27.923064715993004
sg24
F17.319725889783701
sg25
g34
sg35
I0
sg36
I01
sg37
F-27.874941594247783
sg38
I97
sg39
g40
sg41
g8
(g9
(I0
tp2353
g11
tp2354
Rp2355
(I1
(I1
I1
tp2356
g18
I00
S's\xb1I\xb3\xfa\xb6\x7fA'
p2357
tp2358
bsg48
F0.096246243490440975
sg49
F0.050000000000000003
sg50
g8
(g9
(I0
tp2359
g11
tp2360
Rp2361
(I1
(I1
I1
tp2362
g18
I00
S'\x00\x00\x00\xe0MbP?'
p2363
tp2364
bsg57
g26
(g18
S':\x0e\x9bNG4\xe8?'
p2365
tp2366
Rp2367
sbag1
(g2
g3
Ntp2368
Rp2369
(dp2370
g7
g8
(g9
(I0
tp2371
g11
tp2372
Rp2373
(I1
(I1
I1
tp2374
g18
I00
S'\xf4`\x03)\x97nO?'
p2375
tp2376
bsg23
F-7.442015081648937
sg24
F17.487623191037425
sg25
g34
sg35
I0
sg36
I01
sg37
F-7.4091931923361924
sg38
I98
sg39
g40
sg41
g8
(g9
(I0
tp2377
g11
tp2378
Rp2379
(I1
(I1
I1
tp2380
g18
I00
S'\t\xad!3\xa0\xc1\x82A'
p2381
tp2382
bsg48
F0.065643778625489091
sg49
F0.050000000000000003
sg50
g8
(g9
(I0
tp2383
g11
tp2384
Rp2385
(I1
(I1
I1
tp2386
g18
I00
S'\x00\x00\x00\xe0MbP?'
p2387
tp2388
bsg57
g26
(g18
S'{S\xa5v{\x87\xe9?'
p2389
tp2390
Rp2391
sbag1
(g2
g3
Ntp2392
Rp2393
(dp2394
g7
g8
(g9
(I0
tp2395
g11
tp2396
Rp2397
(I1
(I1
I1
tp2398
g18
I00
S'\xbe\x0c\x85W\xda\x17R?'
p2399
tp2400
bsg23
F-23.121004929811395
sg24
F17.425803388533474
sg25
g34
sg35
I0
sg36
I01
sg37
F-22.91975719927542
sg38
I99
sg39
g40
sg41
g8
(g9
(I0
tp2401
g11
tp2402
Rp2403
(I1
(I1
I1
tp2404
g18
I00
S'x|\x85y\xc7\xa1\x81A'
p2405
tp2406
bsg48
F0.40249546107195044
sg49
F0.050000000000000003
sg50
g8
(g9
(I0
tp2407
g11
tp2408
Rp2409
(I1
(I1
I1
tp2410
g18
I00
S'\x00\x00\x00\xe0MbP?'
p2411
tp2412
bsg57
g26
(g18
S'\x19\xcf\xc0ra\xd3\xe0?'
p2413
tp2414
Rp2415
sbag1
(g2
g3
Ntp2416
Rp2417
(dp2418
g7
g8
(g9
(I0
tp2419
g11
tp2420
Rp2421
(I1
(I1
I1
tp2422
g18
I00
S'\xff1\x90\x98\x9f\xb1N?'
p2423
tp2424
bsg23
F-8.539147989891557
sg24
F15.060891195302821
sg25
g34
sg35
I0
sg36
I01
sg37
F-8.5322114564224858
sg38
I100
sg39
g40
sg41
g8
(g9
(I0
tp2425
g11
tp2426
Rp2427
(I1
(I1
I1
tp2428
g18
I00
S'\xba\td}\xa8\x81JA'
p2429
tp2430
bsg48
F0.013873066938142387
sg49
F0.050000000000000003
sg50
g8
(g9
(I0
tp2431
g11
tp2432
Rp2433
(I1
(I1
I1
tp2434
g18
I00
S'\x00\x00\x00\xe0MbP?'
p2435
tp2436
bsg57
g26
(g18
S'\x18i\xc1\x8d\xe8\xff\xec?'
p2437
tp2438
Rp2439
sba.