(lp0
ccopy_reg
_reconstructor
p1
(ctestcr
WOHoc
p2
c__builtin__
object
p3
Ntp4
Rp5
(dp6
S'mle'
p7
cnumpy.core.multiarray
_reconstruct
p8
(cnumpy.core.defmatrix
matrix
p9
(I0
tp10
S'b'
p11
tp12
Rp13
(I1
(I1
I1
tp14
cnumpy
dtype
p15
(S'f8'
p16
I0
I1
tp17
Rp18
(I3
S'<'
p19
NNNI-1
I-1
I0
tp20
bI00
S'`\x82V\x85\xcb\xcaf?'
p21
tp22
bsS'ml'
p23
F5.1042215432855382
sS'precision'
p24
F1.5887512005287936
sS'covers'
p25
cnumpy.core.multiarray
scalar
p26
(g15
(S'b1'
p27
I0
I1
tp28
Rp29
(I3
S'|'
p30
NNNI-1
I-1
I0
tp31
bS'\x01'
p32
tp33
Rp34
sS'n'
p35
I0
sS'likefailed'
p36
I01
sS'tl'
p37
F5.1043565819569165
sS'seed'
p38
I1
sS'modelses'
p39
S'rc2.ses'
p40
sS'H'
p41
g8
(g9
(I0
tp42
g11
tp43
Rp44
(I1
(I1
I1
tp45
g18
I00
S'D:8\x0b,\x97\x13\xc0'
p46
tp47
bsS'CS'
p48
F0.00027007734275663609
sS'alpha'
p49
F0.050000000000000003
sS'true'
p50
g8
(g9
(I0
tp51
g11
tp52
Rp53
(I1
(I1
I1
tp54
g18
I00
S'\x00\x00\x00\xe0MbP?'
p55
tp56
bsS'pValue'
p57
g26
(g18
S'\x8c\xc0"k\x96\x94\xef?'
p58
tp59
Rp60
sbag1
(g2
g3
Ntp61
Rp62
(dp63
g7
g8
(g9
(I0
tp64
g11
tp65
Rp66
(I1
(I1
I1
tp67
g18
I00
S'\x00\x00\x00\xe0MbP?'
p68
tp69
bsg23
F4.9534950302103971
sg24
F8.306233250334353
sg25
g34
sg35
I0
sg36
I01
sg37
F4.9534950302103971
sg38
I2
sg39
g40
sg41
g8
(g9
(I0
tp70
g11
tp71
Rp72
(I1
(I1
I1
tp73
g18
I00
S'?\xe8\xe7\xa7\x10\xa2\xaf@'
p74
tp75
bsg48
F0.0
sg49
F0.050000000000000003
sg50
g8
(g9
(I0
tp76
g11
tp77
Rp78
(I1
(I1
I1
tp79
g18
I00
S'\x00\x00\x00\xe0MbP?'
p80
tp81
bsg57
g26
(g18
S'\x00\x00\x00\x00\x00\x00\xf0?'
p82
tp83
Rp84
sbag1
(g2
g3
Ntp85
Rp86
(dp87
g7
g8
(g9
(I0
tp88
g11
tp89
Rp90
(I1
(I1
I1
tp91
g18
I00
S'\xe5\x02\xf9\xa8\xdb\x15@?'
p92
tp93
bsg23
F5.0673858808223962
sg24
F-24.163421693139536
sg25
g34
sg35
I0
sg36
I01
sg37
F5.1450374592636781
sg38
I3
sg39
g40
sg41
g8
(g9
(I0
tp94
g11
tp95
Rp96
(I1
(I1
I1
tp97
g18
I00
S'\x00\x00\x00\x00\x00\xa0\xc1\xbd'
p98
tp99
bsg48
F0.1553031568825638
sg49
F0.050000000000000003
sg50
g8
(g9
(I0
tp100
g11
tp101
Rp102
(I1
(I1
I1
tp103
g18
I00
S'\x00\x00\x00\xe0MbP?'
p104
tp105
bsg57
g26
(g18
S'\\\x92\xde\xecL1\xe6?'
p106
tp107
Rp108
sbag1
(g2
g3
Ntp109
Rp110
(dp111
g7
g8
(g9
(I0
tp112
g11
tp113
Rp114
(I1
(I1
I1
tp115
g18
I00
S'\xfeB\xc7\xed\xd3\xbeX?'
p116
tp117
bsg23
F7.9028654023533447
sg24
F6.1125662240666889
sg25
g34
sg35
I0
sg36
I01
sg37
F7.9042896979952033
sg38
I4
sg39
g40
sg41
g8
(g9
(I0
tp118
g11
tp119
Rp120
(I1
(I1
I1
tp121
g18
I00
S'\xcbi\xb0\x14\xef7|@'
p122
tp123
bsg48
F0.0028485912837172833
sg49
F0.050000000000000003
sg50
g8
(g9
(I0
tp124
g11
tp125
Rp126
(I1
(I1
I1
tp127
g18
I00
S'\x00\x00\x00\xe0MbP?'
p128
tp129
bsg57
g26
(g18
S'\x82\x1b\xecyO\xa3\xee?'
p130
tp131
Rp132
sbag1
(g2
g3
Ntp133
Rp134
(dp135
g7
g8
(g9
(I0
tp136
g11
tp137
Rp138
(I1
(I1
I1
tp139
g18
I00
S'K\xd3\xf1e\x80\xc1D?'
p140
tp141
bsg23
F5.3299745867051884
sg24
F14.244671531651836
sg25
g34
sg35
I0
sg36
I01
sg37
F5.3584803565779326
sg38
I5
sg39
g40
sg41
g8
(g9
(I0
tp142
g11
tp143
Rp144
(I1
(I1
I1
tp145
g18
I00
S'BO\xd5C\xe0o7A'
p146
tp147
bsg48
F0.057011539745488449
sg49
F0.050000000000000003
sg50
g8
(g9
(I0
tp148
g11
tp149
Rp150
(I1
(I1
I1
tp151
g18
I00
S'\x00\x00\x00\xe0MbP?'
p152
tp153
bsg57
g26
(g18
S'NYhE\x08\xf6\xe9?'
p154
tp155
Rp156
sbag1
(g2
g3
Ntp157
Rp158
(dp159
g7
g8
(g9
(I0
tp160
g11
tp161
Rp162
(I1
(I1
I1
tp163
g18
I00
S'Z\x0f\xfe+\r\xecn?'
p164
tp165
bsg23
F5.9390146731481739
sg24
F0.94450360936715549
sg25
g34
sg35
I0
sg36
I01
sg37
F5.9421979132979139
sg38
I6
sg39
g40
sg41
g8
(g9
(I0
tp166
g11
tp167
Rp168
(I1
(I1
I1
tp169
g18
I00
S'\x15v\x92\xc4\x81\x92\x04\xc0'
p170
tp171
bsg48
F0.0063664802994800596
sg49
F0.050000000000000003
sg50
g8
(g9
(I0
tp172
g11
tp173
Rp174
(I1
(I1
I1
tp175
g18
I00
S'\x00\x00\x00\xe0MbP?'
p176
tp177
bsg57
g26
(g18
S'\xbeg\xc4\xb9\x05\xf7\xed?'
p178
tp179
Rp180
sbag1
(g2
g3
Ntp181
Rp182
(dp183
g7
g8
(g9
(I0
tp184
g11
tp185
Rp186
(I1
(I1
I1
tp187
g18
I00
S'\xcf\x7f\xe6!\xb3\xd2n?'
p188
tp189
bsg23
F6.2374369105376299
sg24
F4.7603345945513436
sg25
g34
sg35
I0
sg36
I01
sg37
F6.2853709345584967
sg38
I7
sg39
g40
sg41
g8
(g9
(I0
tp190
g11
tp191
Rp192
(I1
(I1
I1
tp193
g18
I00
S'\xc8\x88\x9b[=2]\xc0'
p194
tp195
bsg48
F0.095868048041733545
sg49
F0.050000000000000003
sg50
g8
(g9
(I0
tp196
g11
tp197
Rp198
(I1
(I1
I1
tp199
g18
I00
S'\x00\x00\x00\xe0MbP?'
p200
tp201
bsg57
g26
(g18
S'\x00\xea;Z\x148\xe8?'
p202
tp203
Rp204
sbag1
(g2
g3
Ntp205
Rp206
(dp207
g7
g8
(g9
(I0
tp208
g11
tp209
Rp210
(I1
(I1
I1
tp211
g18
I00
S'/\xec\n\xee9bk?'
p212
tp213
bsg23
F5.0444923941259043
sg24
F1.7752365666636696
sg25
g34
sg35
I0
sg36
I01
sg37
F5.0510822321714386
sg38
I8
sg39
g40
sg41
g8
(g9
(I0
tp214
g11
tp215
Rp216
(I1
(I1
I1
tp217
g18
I00
S'\xaf\x96\xa1>Q\x9b\x17@'
p218
tp219
bsg48
F0.013179676091068515
sg49
F0.050000000000000003
sg50
g8
(g9
(I0
tp220
g11
tp221
Rp222
(I1
(I1
I1
tp223
g18
I00
S'\x00\x00\x00\xe0MbP?'
p224
tp225
bsg57
g26
(g18
S'>\xa5\xc7ZC\x13\xed?'
p226
tp227
Rp228
sbag1
(g2
g3
Ntp229
Rp230
(dp231
g7
g8
(g9
(I0
tp232
g11
tp233
Rp234
(I1
(I1
I1
tp235
g18
I00
S'\x85B\x0c\xb0\xcd6k?'
p236
tp237
bsg23
F5.2199747190059851
sg24
F0.59866870525920646
sg25
g34
sg35
I0
sg36
I01
sg37
F5.2213889951313384
sg38
I9
sg39
g40
sg41
g8
(g9
(I0
tp238
g11
tp239
Rp240
(I1
(I1
I1
tp241
g18
I00
S'>f\xb8\x1fx\x1d\xfd\xbf'
p242
tp243
bsg48
F0.0028285522507065508
sg49
F0.050000000000000003
sg50
g8
(g9
(I0
tp244
g11
tp245
Rp246
(I1
(I1
I1
tp247
g18
I00
S'\x00\x00\x00\xe0MbP?'
p248
tp249
bsg57
g26
(g18
S'F\x84p\xb5\x89\xa4\xee?'
p250
tp251
Rp252
sbag1
(g2
g3
Ntp253
Rp254
(dp255
g7
g8
(g9
(I0
tp256
g11
tp257
Rp258
(I1
(I1
I1
tp259
g18
I00
S'\x87\xd0>W7\xdc6?'
p260
tp261
bsg23
F5.0374607649928462
sg24
F16.317931597502962
sg25
g34
sg35
I0
sg36
I01
sg37
F5.3013618135504927
sg38
I10
sg39
g40
sg41
g8
(g9
(I0
tp262
g11
tp263
Rp264
(I1
(I1
I1
tp265
g18
I00
S'\xb8\xc4\xc2\xff\xe6JgA'
p266
tp267
bsg48
F0.52780209711529302
sg49
F0.050000000000000003
sg50
g8
(g9
(I0
tp268
g11
tp269
Rp270
(I1
(I1
I1
tp271
g18
I00
S'\x00\x00\x00\xe0MbP?'
p272
tp273
bsg57
g26
(g18
S'4\xfb\xdd\xe5\x0c\xec\xdd?'
p274
tp275
Rp276
sbag1
(g2
g3
Ntp277
Rp278
(dp279
g7
g8
(g9
(I0
tp280
g11
tp281
Rp282
(I1
(I1
I1
tp283
g18
I00
S'H\n\xa4\x18\x83\xcbm?'
p284
tp285
bsg23
F5.8821503353900004
sg24
F1.1274575650680949
sg25
g34
sg35
I0
sg36
I01
sg37
F5.890378431409685
sg38
I11
sg39
g40
sg41
g8
(g9
(I0
tp286
g11
tp287
Rp288
(I1
(I1
I1
tp289
g18
I00
S'\xb5x\x83b\xce\xb3\x08\xc0'
p290
tp291
bsg48
F0.0164561920393691
sg49
F0.050000000000000003
sg50
g8
(g9
(I0
tp292
g11
tp293
Rp294
(I1
(I1
I1
tp295
g18
I00
S'\x00\x00\x00\xe0MbP?'
p296
tp297
bsg57
g26
(g18
S'\xa5\x05\xc8k\xcf\xbb\xec?'
p298
tp299
Rp300
sbag1
(g2
g3
Ntp301
Rp302
(dp303
g7
g8
(g9
(I0
tp304
g11
tp305
Rp306
(I1
(I1
I1
tp307
g18
I00
S'e\xee+P\xd7|E?'
p308
tp309
bsg23
F5.238066007634016
sg24
F10.734472001789678
sg25
g34
sg35
I0
sg36
I01
sg37
F5.2388253004802143
sg38
I12
sg39
g40
sg41
g8
(g9
(I0
tp310
g11
tp311
Rp312
(I1
(I1
I1
tp313
g18
I00
S'\x9e\xcb\xe1\x9a\xf1j\xe6@'
p314
tp315
bsg48
F0.0015185856923967123
sg49
F0.050000000000000003
sg50
g8
(g9
(I0
tp316
g11
tp317
Rp318
(I1
(I1
I1
tp319
g18
I00
S'\x00\x00\x00\xe0MbP?'
p320
tp321
bsg57
g26
(g18
S'\xac\xd6\xaa0Z\x01\xef?'
p322
tp323
Rp324
sbag1
(g2
g3
Ntp325
Rp326
(dp327
g7
g8
(g9
(I0
tp328
g11
tp329
Rp330
(I1
(I1
I1
tp331
g18
I00
S'r\xaa\x19\xa3~mH?'
p332
tp333
bsg23
F5.0101802042314461
sg24
F12.214020704769371
sg25
g34
sg35
I0
sg36
I01
sg37
F5.0125262366894887
sg38
I13
sg39
g40
sg41
g8
(g9
(I0
tp334
g11
tp335
Rp336
(I1
(I1
I1
tp337
g18
I00
S'\x8e6\xf6\x90\xdf\x9b\x08A'
p338
tp339
bsg48
F0.0046920649160853145
sg49
F0.050000000000000003
sg50
g8
(g9
(I0
tp340
g11
tp341
Rp342
(I1
(I1
I1
tp343
g18
I00
S'\x00\x00\x00\xe0MbP?'
p344
tp345
bsg57
g26
(g18
S'R\xe5#\xcb\x9f@\xee?'
p346
tp347
Rp348
sbag1
(g2
g3
Ntp349
Rp350
(dp351
g7
g8
(g9
(I0
tp352
g11
tp353
Rp354
(I1
(I1
I1
tp355
g18
I00
S'u{\x1a{\x82\x833?'
p356
tp357
bsg23
F5.5053385726298805
sg24
F15.88355976580339
sg25
g34
sg35
I0
sg36
I01
sg37
F5.6568218113535158
sg38
I14
sg39
g40
sg41
g8
(g9
(I0
tp358
g11
tp359
Rp360
(I1
(I1
I1
tp361
g18
I00
S'\xfd\x83J\xa0\x00,^A'
p362
tp363
bsg48
F0.30296647744727068
sg49
F0.050000000000000003
sg50
g8
(g9
(I0
tp364
g11
tp365
Rp366
(I1
(I1
I1
tp367
g18
I00
S'\x00\x00\x00\xe0MbP?'
p368
tp369
bsg57
g26
(g18
S'M\x86\xbc\x8e\xfa\x9f\xe2?'
p370
tp371
Rp372
sbag1
(g2
g3
Ntp373
Rp374
(dp375
g7
g8
(g9
(I0
tp376
g11
tp377
Rp378
(I1
(I1
I1
tp379
g18
I00
S'\xdfLo\xcde\x03@?'
p380
tp381
bsg23
F5.3063630374241431
sg24
F12.893749871211705
sg25
g34
sg35
I0
sg36
I01
sg37
F5.3163248631633238
sg38
I15
sg39
g40
sg41
g8
(g9
(I0
tp382
g11
tp383
Rp384
(I1
(I1
I1
tp385
g18
I00
S'\xe1\x06\x06\xf7\xe7G\x18A'
p386
tp387
bsg48
F0.019923651478361393
sg49
F0.050000000000000003
sg50
g8
(g9
(I0
tp388
g11
tp389
Rp390
(I1
(I1
I1
tp391
g18
I00
S'\x00\x00\x00\xe0MbP?'
p392
tp393
bsg57
g26
(g18
S'\x86\xa1\x84\xc9sh\xec?'
p394
tp395
Rp396
sbag1
(g2
g3
Ntp397
Rp398
(dp399
g7
g8
(g9
(I0
tp400
g11
tp401
Rp402
(I1
(I1
I1
tp403
g18
I00
S'\x16,c\xd6\x05\x9dk?'
p404
tp405
bsg23
F5.0178626879737651
sg24
F1.4792597323008352
sg25
g34
sg35
I0
sg36
I01
sg37
F5.0244994139664083
sg38
I16
sg39
g40
sg41
g8
(g9
(I0
tp406
g11
tp407
Rp408
(I1
(I1
I1
tp409
g18
I00
S'\xbd\x1b\xf5/\x0c\x8f\x11@'
p410
tp411
bsg48
F0.0132734519852864
sg49
F0.050000000000000003
sg50
g8
(g9
(I0
tp412
g11
tp413
Rp414
(I1
(I1
I1
tp415
g18
I00
S'\x00\x00\x00\xe0MbP?'
p416
tp417
bsg57
g26
(g18
S'\x08=\x13\xa8\x9d\x10\xed?'
p418
tp419
Rp420
sbag1
(g2
g3
Ntp421
Rp422
(dp423
g7
g8
(g9
(I0
tp424
g11
tp425
Rp426
(I1
(I1
I1
tp427
g18
I00
S'<\x93\x07\x03\xb2\xa6k?'
p428
tp429
bsg23
F5.0399923140757066
sg24
F2.5024053720719936
sg25
g34
sg35
I0
sg36
I01
sg37
F5.0478987805511739
sg38
I17
sg39
g40
sg41
g8
(g9
(I0
tp430
g11
tp431
Rp432
(I1
(I1
I1
tp433
g18
I00
S'1\xb6\xabTul(@'
p434
tp435
bsg48
F0.015812932950934666
sg49
F0.050000000000000003
sg50
g8
(g9
(I0
tp436
g11
tp437
Rp438
(I1
(I1
I1
tp439
g18
I00
S'\x00\x00\x00\xe0MbP?'
p440
tp441
bsg57
g26
(g18
S'\xd2+\x06{:\xcc\xec?'
p442
tp443
Rp444
sbag1
(g2
g3
Ntp445
Rp446
(dp447
g7
g8
(g9
(I0
tp448
g11
tp449
Rp450
(I1
(I1
I1
tp451
g18
I00
S'\x8ev\xd7\r\x06\xd6n?'
p452
tp453
bsg23
F7.2921919105352861
sg24
F0.82416701412789373
sg25
g34
sg35
I0
sg36
I01
sg37
F7.3113060013270008
sg38
I18
sg39
g40
sg41
g8
(g9
(I0
tp454
g11
tp455
Rp456
(I1
(I1
I1
tp457
g18
I00
S'4\xe7|\x90f=\x02@'
p458
tp459
bsg48
F0.038228181583429333
sg49
F0.050000000000000003
sg50
g8
(g9
(I0
tp460
g11
tp461
Rp462
(I1
(I1
I1
tp463
g18
I00
S'\x00\x00\x00\xe0MbP?'
p464
tp465
bsg57
g26
(g18
S'@,\xa6]\x1f\n\xeb?'
p466
tp467
Rp468
sbag1
(g2
g3
Ntp469
Rp470
(dp471
g7
g8
(g9
(I0
tp472
g11
tp473
Rp474
(I1
(I1
I1
tp475
g18
I00
S'\xa3q\x81\xa5\xd0\x9eh?'
p476
tp477
bsg23
F5.0733739472014783
sg24
F1.2803917813695316
sg25
g34
sg35
I0
sg36
I01
sg37
F5.0741209276422037
sg38
I19
sg39
g40
sg41
g8
(g9
(I0
tp478
g11
tp479
Rp480
(I1
(I1
I1
tp481
g18
I00
S'V\xf5,\xf7\xcd\xc8\x0c@'
p482
tp483
bsg48
F0.0014939608814508176
sg49
F0.050000000000000003
sg50
g8
(g9
(I0
tp484
g11
tp485
Rp486
(I1
(I1
I1
tp487
g18
I00
S'\x00\x00\x00\xe0MbP?'
p488
tp489
bsg57
g26
(g18
S'\xdf\xa9\xb4\xa1l\x03\xef?'
p490
tp491
Rp492
sbag1
(g2
g3
Ntp493
Rp494
(dp495
g7
g8
(g9
(I0
tp496
g11
tp497
Rp498
(I1
(I1
I1
tp499
g18
I00
S'\xbb\xddEim@k?'
p500
tp501
bsg23
F4.9728851320155396
sg24
F0.50546863761178051
sg25
g34
sg35
I0
sg36
I01
sg37
F4.9744366629963519
sg38
I20
sg39
g40
sg41
g8
(g9
(I0
tp502
g11
tp503
Rp504
(I1
(I1
I1
tp505
g18
I00
S'pL\xa9\xaf1\x86\xfa?'
p506
tp507
bsg48
F0.0031030619616245758
sg49
F0.050000000000000003
sg50
g8
(g9
(I0
tp508
g11
tp509
Rp510
(I1
(I1
I1
tp511
g18
I00
S'\x00\x00\x00\xe0MbP?'
p512
tp513
bsg57
g26
(g18
S'\x93j~\x9b\x15\x94\xee?'
p514
tp515
Rp516
sbag1
(g2
g3
Ntp517
Rp518
(dp519
g7
g8
(g9
(I0
tp520
g11
tp521
Rp522
(I1
(I1
I1
tp523
g18
I00
S'\x80\xce\xad\xbe!\xbej?'
p524
tp525
bsg23
F5.1758778292094734
sg24
F-1.0386156288268957
sg25
g34
sg35
I0
sg36
I01
sg37
F5.17603724454702
sg38
I21
sg39
g40
sg41
g8
(g9
(I0
tp526
g11
tp527
Rp528
(I1
(I1
I1
tp529
g18
I00
S'0|\x03"\x06\xa7\xd6\xbf'
p530
tp531
bsg48
F0.00031883067509319574
sg49
F0.050000000000000003
sg50
g8
(g9
(I0
tp532
g11
tp533
Rp534
(I1
(I1
I1
tp535
g18
I00
S'\x00\x00\x00\xe0MbP?'
p536
tp537
bsg57
g26
(g18
S'\x1aP\xe5\xb0K\x8b\xef?'
p538
tp539
Rp540
sbag1
(g2
g3
Ntp541
Rp542
(dp543
g7
g8
(g9
(I0
tp544
g11
tp545
Rp546
(I1
(I1
I1
tp547
g18
I00
S'\xcf\xd0@_M\x0en?'
p548
tp549
bsg23
F7.1899471276461009
sg24
F4.8071331792550271
sg25
g34
sg35
I0
sg36
I01
sg37
F7.2368260133501225
sg38
I22
sg39
g40
sg41
g8
(g9
(I0
tp550
g11
tp551
Rp552
(I1
(I1
I1
tp553
g18
I00
S'\x8f\xe2\xab_V\x98^@'
p554
tp555
bsg48
F0.093757771408043311
sg49
F0.050000000000000003
sg50
g8
(g9
(I0
tp556
g11
tp557
Rp558
(I1
(I1
I1
tp559
g18
I00
S'\x00\x00\x00\xe0MbP?'
p560
tp561
bsg57
g26
(g18
S'\x03\xf6\n\xcepM\xe8?'
p562
tp563
Rp564
sbag1
(g2
g3
Ntp565
Rp566
(dp567
g7
g8
(g9
(I0
tp568
g11
tp569
Rp570
(I1
(I1
I1
tp571
g18
I00
S'\xb2\x136\x86O\xc6F?'
p572
tp573
bsg23
F4.9767178262245864
sg24
F12.344409240521657
sg25
g34
sg35
I0
sg36
I01
sg37
F4.980688716837804
sg38
I23
sg39
g40
sg41
g8
(g9
(I0
tp574
g11
tp575
Rp576
(I1
(I1
I1
tp577
g18
I00
S'Z\x8c\xa0:C\t\x0cA'
p578
tp579
bsg48
F0.007941781226435296
sg49
F0.050000000000000003
sg50
g8
(g9
(I0
tp580
g11
tp581
Rp582
(I1
(I1
I1
tp583
g18
I00
S'\x00\x00\x00\xe0MbP?'
p584
tp585
bsg57
g26
(g18
S'\xefc{\x88G\xba\xed?'
p586
tp587
Rp588
sbag1
(g2
g3
Ntp589
Rp590
(dp591
g7
g8
(g9
(I0
tp592
g11
tp593
Rp594
(I1
(I1
I1
tp595
g18
I00
S')e\x9c\xd3\xa9\xd8l?'
p596
tp597
bsg23
F5.0004917082117455
sg24
F0.69527053617203349
sg25
g34
sg35
I0
sg36
I01
sg37
F5.0048696672271635
sg38
I24
sg39
g40
sg41
g8
(g9
(I0
tp598
g11
tp599
Rp600
(I1
(I1
I1
tp601
g18
I00
S'c\xf3\x7f\xdd\xb4\x08\x00@'
p602
tp603
bsg48
F0.0087559180308360851
sg49
F0.050000000000000003
sg50
g8
(g9
(I0
tp604
g11
tp605
Rp606
(I1
(I1
I1
tp607
g18
I00
S'\x00\x00\x00\xe0MbP?'
p608
tp609
bsg57
g26
(g18
S'$\r\x7f\xc5E\x9d\xed?'
p610
tp611
Rp612
sbag1
(g2
g3
Ntp613
Rp614
(dp615
g7
g8
(g9
(I0
tp616
g11
tp617
Rp618
(I1
(I1
I1
tp619
g18
I00
S'9\xdbWTx\xfcj?'
p620
tp621
bsg23
F5.0749303615905799
sg24
F-1.7564694417519144
sg25
g34
sg35
I0
sg36
I01
sg37
F5.074999067030407
sg38
I25
sg39
g40
sg41
g8
(g9
(I0
tp622
g11
tp623
Rp624
(I1
(I1
I1
tp625
g18
I00
S';\x96\xaaI\x81\x19\xc6?'
p626
tp627
bsg48
F0.00013741087965435383
sg49
F0.050000000000000003
sg50
g8
(g9
(I0
tp628
g11
tp629
Rp630
(I1
(I1
I1
tp631
g18
I00
S'\x00\x00\x00\xe0MbP?'
p632
tp633
bsg57
g26
(g18
S'\xc6]\xf9\xcca\xb3\xef?'
p634
tp635
Rp636
sbag1
(g2
g3
Ntp637
Rp638
(dp639
g7
g8
(g9
(I0
tp640
g11
tp641
Rp642
(I1
(I1
I1
tp643
g18
I00
S'\x04\xe9V\xbf\x9d\xa05?'
p644
tp645
bsg23
F4.9959069142238288
sg24
F16.279055602810839
sg25
g34
sg35
I0
sg36
I01
sg37
F5.2242484074511264
sg38
I26
sg39
g40
sg41
g8
(g9
(I0
tp646
g11
tp647
Rp648
(I1
(I1
I1
tp649
g18
I00
S'1tAh\x89gfA'
p650
tp651
bsg48
F0.45668298645459515
sg49
F0.050000000000000003
sg50
g8
(g9
(I0
tp652
g11
tp653
Rp654
(I1
(I1
I1
tp655
g18
I00
S'\x00\x00\x00\xe0MbP?'
p656
tp657
bsg57
g26
(g18
S'\xce5er\x89\xf2\xdf?'
p658
tp659
Rp660
sbag1
(g2
g3
Ntp661
Rp662
(dp663
g7
g8
(g9
(I0
tp664
g11
tp665
Rp666
(I1
(I1
I1
tp667
g18
I00
S'\x95\xcb!\xfaJ\x9f@?'
p668
tp669
bsg23
F5.060854723026508
sg24
F14.866490409977194
sg25
g34
sg35
I0
sg36
I01
sg37
F5.114262912463766
sg38
I27
sg39
g40
sg41
g8
(g9
(I0
tp670
g11
tp671
Rp672
(I1
(I1
I1
tp673
g18
I00
S'\xea\xa7cH\xd2\xd2EA'
p674
tp675
bsg48
F0.106816378874516
sg49
F0.050000000000000003
sg50
g8
(g9
(I0
tp676
g11
tp677
Rp678
(I1
(I1
I1
tp679
g18
I00
S'\x00\x00\x00\xe0MbP?'
p680
tp681
bsg57
g26
(g18
S'\x9ag0\xd11\xcd\xe7?'
p682
tp683
Rp684
sbag1
(g2
g3
Ntp685
Rp686
(dp687
g7
g8
(g9
(I0
tp688
g11
tp689
Rp690
(I1
(I1
I1
tp691
g18
I00
S'F\xcaC\xe4X\xd0:?'
p692
tp693
bsg23
F6.1417503248443914
sg24
F16.031554756071209
sg25
g34
sg35
I0
sg36
I01
sg37
F6.3103332949929793
sg38
I28
sg39
g40
sg41
g8
(g9
(I0
tp694
g11
tp695
Rp696
(I1
(I1
I1
tp697
g18
I00
S'B\x12\xe3\x8d\x04~aA'
p698
tp699
bsg48
F0.33716594029717584
sg49
F0.050000000000000003
sg50
g8
(g9
(I0
tp700
g11
tp701
Rp702
(I1
(I1
I1
tp703
g18
I00
S'\x00\x00\x00\xe0MbP?'
p704
tp705
bsg57
g26
(g18
S'\x98o\x97C\x8f\xf7\xe1?'
p706
tp707
Rp708
sbag1
(g2
g3
Ntp709
Rp710
(dp711
g7
g8
(g9
(I0
tp712
g11
tp713
Rp714
(I1
(I1
I1
tp715
g18
I00
S'\x8c\xb9q\xf6\xd9\x12+?'
p716
tp717
bsg23
F5.279569575615974
sg24
F15.639435226105441
sg25
g34
sg35
I0
sg36
I01
sg37
F5.4057120587424503
sg38
I29
sg39
g40
sg41
g8
(g9
(I0
tp718
g11
tp719
Rp720
(I1
(I1
I1
tp721
g18
I00
S'@\x8a\x9f"\xe8\xa2WA'
p722
tp723
bsg48
F0.25228496625295271
sg49
F0.050000000000000003
sg50
g8
(g9
(I0
tp724
g11
tp725
Rp726
(I1
(I1
I1
tp727
g18
I00
S'\x00\x00\x00\xe0MbP?'
p728
tp729
bsg57
g26
(g18
S'\xc6v\x8a\xb0\xef\xb1\xe3?'
p730
tp731
Rp732
sbag1
(g2
g3
Ntp733
Rp734
(dp735
g7
g8
(g9
(I0
tp736
g11
tp737
Rp738
(I1
(I1
I1
tp739
g18
I00
S'\x00\x00\x00\xe0MbP?'
p740
tp741
bsg23
F5.3977153796134587
sg24
F10.741668376064819
sg25
g34
sg35
I0
sg36
I01
sg37
F5.3977153796134587
sg38
I30
sg39
g40
sg41
g8
(g9
(I0
tp742
g11
tp743
Rp744
(I1
(I1
I1
tp745
g18
I00
S'm\x91\xednd\x94\xe6@'
p746
tp747
bsg48
F0.0
sg49
F0.050000000000000003
sg50
g8
(g9
(I0
tp748
g11
tp749
Rp750
(I1
(I1
I1
tp751
g18
I00
S'\x00\x00\x00\xe0MbP?'
p752
tp753
bsg57
g26
(g18
S'\x00\x00\x00\x00\x00\x00\xf0?'
p754
tp755
Rp756
sbag1
(g2
g3
Ntp757
Rp758
(dp759
g7
g8
(g9
(I0
tp760
g11
tp761
Rp762
(I1
(I1
I1
tp763
g18
I00
S'\xe5npr\xdf\x0e3?'
p764
tp765
bsg23
F4.9512981191999197
sg24
F15.922377579107156
sg25
g34
sg35
I0
sg36
I01
sg37
F5.1043757991057106
sg38
I31
sg39
g40
sg41
g8
(g9
(I0
tp766
g11
tp767
Rp768
(I1
(I1
I1
tp769
g18
I00
S'\xb8]\x12\n\xba]_A'
p770
tp771
bsg48
F0.30615535981158182
sg49
F0.050000000000000003
sg50
g8
(g9
(I0
tp772
g11
tp773
Rp774
(I1
(I1
I1
tp775
g18
I00
S'\x00\x00\x00\xe0MbP?'
p776
tp777
bsg57
g26
(g18
S'D{\xe2\x05\xc3\x8f\xe2?'
p778
tp779
Rp780
sbag1
(g2
g3
Ntp781
Rp782
(dp783
g7
g8
(g9
(I0
tp784
g11
tp785
Rp786
(I1
(I1
I1
tp787
g18
I00
S'\xc0\xc3\rjE|B?'
p788
tp789
bsg23
F5.2591326226552013
sg24
F14.809084039839764
sg25
g34
sg35
I0
sg36
I01
sg37
F5.3143619545970182
sg38
I32
sg39
g40
sg41
g8
(g9
(I0
tp790
g11
tp791
Rp792
(I1
(I1
I1
tp793
g18
I00
S'QNx`"\x9bDA'
p794
tp795
bsg48
F0.11045866388363379
sg49
F0.050000000000000003
sg50
g8
(g9
(I0
tp796
g11
tp797
Rp798
(I1
(I1
I1
tp799
g18
I00
S'\x00\x00\x00\xe0MbP?'
p800
tp801
bsg57
g26
(g18
S'\x90X}\xec\xfc\xaa\xe7?'
p802
tp803
Rp804
sbag1
(g2
g3
Ntp805
Rp806
(dp807
g7
g8
(g9
(I0
tp808
g11
tp809
Rp810
(I1
(I1
I1
tp811
g18
I00
S'R\x1f\xef\x9fm\xf97?'
p812
tp813
bsg23
F5.0006712628800054
sg24
F15.866204455351031
sg25
g34
sg35
I0
sg36
I01
sg37
F5.1878131167208998
sg38
I33
sg39
g40
sg41
g8
(g9
(I0
tp814
g11
tp815
Rp816
(I1
(I1
I1
tp817
g18
I00
S'No\x99F\x1b\xa7]A'
p818
tp819
bsg48
F0.37428370768178887
sg49
F0.050000000000000003
sg50
g8
(g9
(I0
tp820
g11
tp821
Rp822
(I1
(I1
I1
tp823
g18
I00
S'\x00\x00\x00\xe0MbP?'
p824
tp825
bsg57
g26
(g18
S'7\xe9\xbb\xf9<M\xe1?'
p826
tp827
Rp828
sbag1
(g2
g3
Ntp829
Rp830
(dp831
g7
g8
(g9
(I0
tp832
g11
tp833
Rp834
(I1
(I1
I1
tp835
g18
I00
S'P\xde\xc7\x7fR$m?'
p836
tp837
bsg23
F5.8910470229443277
sg24
F-0.84204654493224262
sg25
g34
sg35
I0
sg36
I01
sg37
F5.8924235547232184
sg38
I34
sg39
g40
sg41
g8
(g9
(I0
tp838
g11
tp839
Rp840
(I1
(I1
I1
tp841
g18
I00
S'W\x94\xf5;\xaf\x92\xdb?'
p842
tp843
bsg48
F0.0027530635577814877
sg49
F0.050000000000000003
sg50
g8
(g9
(I0
tp844
g11
tp845
Rp846
(I1
(I1
I1
tp847
g18
I00
S'\x00\x00\x00\xe0MbP?'
p848
tp849
bsg57
g26
(g18
S'\x8b\xc1\xd5\x963\xa9\xee?'
p850
tp851
Rp852
sbag1
(g2
g3
Ntp853
Rp854
(dp855
g7
g8
(g9
(I0
tp856
g11
tp857
Rp858
(I1
(I1
I1
tp859
g18
I00
S'B\x12D\x86q_@?'
p860
tp861
bsg23
F5.2252972870677441
sg24
F15.469345317675394
sg25
g34
sg35
I0
sg36
I01
sg37
F5.3143279934157901
sg38
I35
sg39
g40
sg41
g8
(g9
(I0
tp862
g11
tp863
Rp864
(I1
(I1
I1
tp865
g18
I00
S'+Qckz\xf0SA'
p866
tp867
bsg48
F0.17806141269609199
sg49
F0.050000000000000003
sg50
g8
(g9
(I0
tp868
g11
tp869
Rp870
(I1
(I1
I1
tp871
g18
I00
S'\x00\x00\x00\xe0MbP?'
p872
tp873
bsg57
g26
(g18
S'\x8e\xcd\x8d\xba\x94\x89\xe5?'
p874
tp875
Rp876
sbag1
(g2
g3
Ntp877
Rp878
(dp879
g7
g8
(g9
(I0
tp880
g11
tp881
Rp882
(I1
(I1
I1
tp883
g18
I00
S'\xb2\xb2v$J\xab9?'
p884
tp885
bsg23
F4.9566047236489643
sg24
F14.110282254135912
sg25
g34
sg35
I0
sg36
I01
sg37
F4.9902157267392564
sg38
I36
sg39
g40
sg41
g8
(g9
(I0
tp886
g11
tp887
Rp888
(I1
(I1
I1
tp889
g18
I00
S'\xddW\xb7\xc0c}4A'
p890
tp891
bsg48
F0.06722200618058416
sg49
F0.050000000000000003
sg50
g8
(g9
(I0
tp892
g11
tp893
Rp894
(I1
(I1
I1
tp895
g18
I00
S'\x00\x00\x00\xe0MbP?'
p896
tp897
bsg57
g26
(g18
S'\xa8\x97-\xd1\x1ft\xe9?'
p898
tp899
Rp900
sbag1
(g2
g3
Ntp901
Rp902
(dp903
g7
g8
(g9
(I0
tp904
g11
tp905
Rp906
(I1
(I1
I1
tp907
g18
I00
S'\xf4\xbb\xa7#\xad)n?'
p908
tp909
bsg23
F6.4086590798541749
sg24
F1.919575795192658
sg25
g34
sg35
I0
sg36
I01
sg37
F6.4147181748425171
sg38
I37
sg39
g40
sg41
g8
(g9
(I0
tp910
g11
tp911
Rp912
(I1
(I1
I1
tp913
g18
I00
S'\xde\x1e\x10\xfd\xb2E\x1b\xc0'
p914
tp915
bsg48
F0.012118189976684235
sg49
F0.050000000000000003
sg50
g8
(g9
(I0
tp916
g11
tp917
Rp918
(I1
(I1
I1
tp919
g18
I00
S'\x00\x00\x00\xe0MbP?'
p920
tp921
bsg57
g26
(g18
S'[\xdc\x9d\xae\xeb1\xed?'
p922
tp923
Rp924
sbag1
(g2
g3
Ntp925
Rp926
(dp927
g7
g8
(g9
(I0
tp928
g11
tp929
Rp930
(I1
(I1
I1
tp931
g18
I00
S'\x1ao1\x91\xb8kg?'
p932
tp933
bsg23
F5.0419509322651459
sg24
F-0.16310450179850491
sg25
g34
sg35
I0
sg36
I01
sg37
F5.0421108460989137
sg38
I38
sg39
g40
sg41
g8
(g9
(I0
tp934
g11
tp935
Rp936
(I1
(I1
I1
tp937
g18
I00
S'S\xc02\xad\x1f/\xeb?'
p938
tp939
bsg48
F0.00031982766753557712
sg49
F0.050000000000000003
sg50
g8
(g9
(I0
tp940
g11
tp941
Rp942
(I1
(I1
I1
tp943
g18
I00
S'\x00\x00\x00\xe0MbP?'
p944
tp945
bsg57
g26
(g18
S'\x1989\x05\x1d\x8b\xef?'
p946
tp947
Rp948
sbag1
(g2
g3
Ntp949
Rp950
(dp951
g7
g8
(g9
(I0
tp952
g11
tp953
Rp954
(I1
(I1
I1
tp955
g18
I00
S'\xeez\xf3\xee\xd07\x19?'
p956
tp957
bsg23
F5.1161527477097106
sg24
F13.976202211926768
sg25
g34
sg35
I0
sg36
I01
sg37
F5.1402607885287823
sg38
I39
sg39
g40
sg41
g8
(g9
(I0
tp958
g11
tp959
Rp960
(I1
(I1
I1
tp961
g18
I00
S'\xc9\xa8\xb0\xd02\xeb1A'
p962
tp963
bsg48
F0.048216081638143393
sg49
F0.050000000000000003
sg50
g8
(g9
(I0
tp964
g11
tp965
Rp966
(I1
(I1
I1
tp967
g18
I00
S'\x00\x00\x00\xe0MbP?'
p968
tp969
bsg57
g26
(g18
S'4\x9d\xa4\xba4p\xea?'
p970
tp971
Rp972
sbag1
(g2
g3
Ntp973
Rp974
(dp975
g7
g8
(g9
(I0
tp976
g11
tp977
Rp978
(I1
(I1
I1
tp979
g18
I00
S'\xae\xc0\xcf<?\x84.?'
p980
tp981
bsg23
F5.4183958336574811
sg24
F16.123972129692604
sg25
g34
sg35
I0
sg36
I01
sg37
F5.6558414668913422
sg38
I40
sg39
g40
sg41
g8
(g9
(I0
tp982
g11
tp983
Rp984
(I1
(I1
I1
tp985
g18
I00
S'\x88wP9\x97/cA'
p986
tp987
bsg48
F0.47489126646772206
sg49
F0.050000000000000003
sg50
g8
(g9
(I0
tp988
g11
tp989
Rp990
(I1
(I1
I1
tp991
g18
I00
S'\x00\x00\x00\xe0MbP?'
p992
tp993
bsg57
g26
(g18
S'\x9cAk\xe7_h\xdf?'
p994
tp995
Rp996
sbag1
(g2
g3
Ntp997
Rp998
(dp999
g7
g8
(g9
(I0
tp1000
g11
tp1001
Rp1002
(I1
(I1
I1
tp1003
g18
I00
S'\xb2\xb2v$J\xab9?'
p1004
tp1005
bsg23
F5.2175762302786666
sg24
F-23.820133829983263
sg25
g34
sg35
I0
sg36
I01
sg37
F5.5444517788988641
sg38
I41
sg39
g40
sg41
g8
(g9
(I0
tp1006
g11
tp1007
Rp1008
(I1
(I1
I1
tp1009
g18
I00
S'\x00\x00\x00\x00\x00\xd8\xc8\xbd'
p1010
tp1011
bsg48
F0.65375109724039504
sg49
F0.050000000000000003
sg50
g8
(g9
(I0
tp1012
g11
tp1013
Rp1014
(I1
(I1
I1
tp1015
g18
I00
S'\x00\x00\x00\xe0MbP?'
p1016
tp1017
bsg57
g26
(g18
S'\x8a\xa9)\x9a4\xcd\xda?'
p1018
tp1019
Rp1020
sbag1
(g2
g3
Ntp1021
Rp1022
(dp1023
g7
g8
(g9
(I0
tp1024
g11
tp1025
Rp1026
(I1
(I1
I1
tp1027
g18
I00
S'\x81B\x1e\x9a\xa4\xdfm?'
p1028
tp1029
bsg23
F5.0757661302422132
sg24
F1.1045671523144178
sg25
g34
sg35
I0
sg36
I01
sg37
F5.0853929776435729
sg38
I42
sg39
g40
sg41
g8
(g9
(I0
tp1030
g11
tp1031
Rp1032
(I1
(I1
I1
tp1033
g18
I00
S'\xa7\x01\x1f"\xb2$\x08\xc0'
p1034
tp1035
bsg48
F0.019253694802719323
sg49
F0.050000000000000003
sg50
g8
(g9
(I0
tp1036
g11
tp1037
Rp1038
(I1
(I1
I1
tp1039
g18
I00
S'\x00\x00\x00\xe0MbP?'
p1040
tp1041
bsg57
g26
(g18
S'??V\xbb\xf1w\xec?'
p1042
tp1043
Rp1044
sbag1
(g2
g3
Ntp1045
Rp1046
(dp1047
g7
g8
(g9
(I0
tp1048
g11
tp1049
Rp1050
(I1
(I1
I1
tp1051
g18
I00
S"f\xa3\x1f'\x90\n4?"
p1052
tp1053
bsg23
F5.9460082914545769
sg24
F16.769227099061201
sg25
g34
sg35
I0
sg36
I01
sg37
F6.3416755685927777
sg38
I43
sg39
g40
sg41
g8
(g9
(I0
tp1054
g11
tp1055
Rp1056
(I1
(I1
I1
tp1057
g18
I00
S'\xe1\x14\x80^\xe8IrA'
p1058
tp1059
bsg48
F0.79133455427640165
sg49
F0.050000000000000003
sg50
g8
(g9
(I0
tp1060
g11
tp1061
Rp1062
(I1
(I1
I1
tp1063
g18
I00
S'\x00\x00\x00\xe0MbP?'
p1064
tp1065
bsg57
g26
(g18
S'\xfe=\xc6\\\xa6\xea\xd7?'
p1066
tp1067
Rp1068
sbag1
(g2
g3
Ntp1069
Rp1070
(dp1071
g7
g8
(g9
(I0
tp1072
g11
tp1073
Rp1074
(I1
(I1
I1
tp1075
g18
I00
S'Y\xc8n\x8f\xce\xa3j?'
p1076
tp1077
bsg23
F5.3773567607019119
sg24
F0.48399101886971679
sg25
g34
sg35
I0
sg36
I01
sg37
F5.3786896746559361
sg38
I44
sg39
g40
sg41
g8
(g9
(I0
tp1078
g11
tp1079
Rp1080
(I1
(I1
I1
tp1081
g18
I00
S'\xea\xbe*o\xe9\xf5\xf9?'
p1082
tp1083
bsg48
F0.0026658279080482572
sg49
F0.050000000000000003
sg50
g8
(g9
(I0
tp1084
g11
tp1085
Rp1086
(I1
(I1
I1
tp1087
g18
I00
S'\x00\x00\x00\xe0MbP?'
p1088
tp1089
bsg57
g26
(g18
S'\xd9nQ\xe2\xab\xae\xee?'
p1090
tp1091
Rp1092
sbag1
(g2
g3
Ntp1093
Rp1094
(dp1095
g7
g8
(g9
(I0
tp1096
g11
tp1097
Rp1098
(I1
(I1
I1
tp1099
g18
I00
S'\xecJ\xc3\xb9\xba\xc6K?'
p1100
tp1101
bsg23
F6.382179697063215
sg24
F11.88573389461051
sg25
g34
sg35
I0
sg36
I01
sg37
F6.3831392093929766
sg38
I45
sg39
g40
sg41
g8
(g9
(I0
tp1102
g11
tp1103
Rp1104
(I1
(I1
I1
tp1105
g18
I00
S'\xc5\x7f\xbe\xf3\xe4\xb8\x01A'
p1106
tp1107
bsg48
F0.0019190246595233162
sg49
F0.050000000000000003
sg50
g8
(g9
(I0
tp1108
g11
tp1109
Rp1110
(I1
(I1
I1
tp1111
g18
I00
S'\x00\x00\x00\xe0MbP?'
p1112
tp1113
bsg57
g26
(g18
S'\xb0\xcb\xfa`\xc2\xe1\xee?'
p1114
tp1115
Rp1116
sbag1
(g2
g3
Ntp1117
Rp1118
(dp1119
g7
g8
(g9
(I0
tp1120
g11
tp1121
Rp1122
(I1
(I1
I1
tp1123
g18
I00
S'\xb2\xb2v$J\xab9?'
p1124
tp1125
bsg23
F5.5357288550222297
sg24
F15.006791767960879
sg25
g34
sg35
I0
sg36
I01
sg37
F5.6034777884177229
sg38
I46
sg39
g40
sg41
g8
(g9
(I0
tp1126
g11
tp1127
Rp1128
(I1
(I1
I1
tp1129
g18
I00
S'\xdc\xb6\x81\xacO\x1cIA'
p1130
tp1131
bsg48
F0.13549786679098652
sg49
F0.050000000000000003
sg50
g8
(g9
(I0
tp1132
g11
tp1133
Rp1134
(I1
(I1
I1
tp1135
g18
I00
S'\x00\x00\x00\xe0MbP?'
p1136
tp1137
bsg57
g26
(g18
S'\x94\xae\xe2\x9c>\xcf\xe6?'
p1138
tp1139
Rp1140
sbag1
(g2
g3
Ntp1141
Rp1142
(dp1143
g7
g8
(g9
(I0
tp1144
g11
tp1145
Rp1146
(I1
(I1
I1
tp1147
g18
I00
S'\xb2\xb5\x05B\xf5<n?'
p1148
tp1149
bsg23
F5.4634119500454421
sg24
F0.50273937907994515
sg25
g34
sg35
I0
sg36
I01
sg37
F5.4737705759260065
sg38
I47
sg39
g40
sg41
g8
(g9
(I0
tp1150
g11
tp1151
Rp1152
(I1
(I1
I1
tp1153
g18
I00
S'\x1c\\\x97\xe9\xafs\xfa?'
p1154
tp1155
bsg48
F0.020717251761128708
sg49
F0.050000000000000003
sg50
g8
(g9
(I0
tp1156
g11
tp1157
Rp1158
(I1
(I1
I1
tp1159
g18
I00
S'\x00\x00\x00\xe0MbP?'
p1160
tp1161
bsg57
g26
(g18
S'\xba\xbf\xec\xe8pV\xec?'
p1162
tp1163
Rp1164
sbag1
(g2
g3
Ntp1165
Rp1166
(dp1167
g7
g8
(g9
(I0
tp1168
g11
tp1169
Rp1170
(I1
(I1
I1
tp1171
g18
I00
S'P\xb8\xf5\xfb\xf3\xa1t?'
p1172
tp1173
bsg23
F5.7573913118883375
sg24
F0.15296267176651204
sg25
g34
sg35
I0
sg36
I01
sg37
F5.7905084670737246
sg38
I48
sg39
g40
sg41
g8
(g9
(I0
tp1174
g11
tp1175
Rp1176
(I1
(I1
I1
tp1177
g18
I00
S'\x9d\xac\x831\xfe\xa4\xf2?'
p1178
tp1179
bsg48
F0.066234310370774097
sg49
F0.050000000000000003
sg50
g8
(g9
(I0
tp1180
g11
tp1181
Rp1182
(I1
(I1
I1
tp1183
g18
I00
S'\x00\x00\x00\xe0MbP?'
p1184
tp1185
bsg57
g26
(g18
S'\xe5]\x10\xd45\x80\xe9?'
p1186
tp1187
Rp1188
sbag1
(g2
g3
Ntp1189
Rp1190
(dp1191
g7
g8
(g9
(I0
tp1192
g11
tp1193
Rp1194
(I1
(I1
I1
tp1195
g18
I00
S'J\x00\xbd\x8f.k7?'
p1196
tp1197
bsg23
F4.9952710248014878
sg24
F15.931280824805212
sg25
g34
sg35
I0
sg36
I01
sg37
F5.1851786136838758
sg38
I49
sg39
g40
sg41
g8
(g9
(I0
tp1198
g11
tp1199
Rp1200
(I1
(I1
I1
tp1201
g18
I00
S'-\xf5\xcfZ\x89\xa5_A'
p1202
tp1203
bsg48
F0.37981517776477602
sg49
F0.050000000000000003
sg50
g8
(g9
(I0
tp1204
g11
tp1205
Rp1206
(I1
(I1
I1
tp1207
g18
I00
S'\x00\x00\x00\xe0MbP?'
p1208
tp1209
bsg57
g26
(g18
S'\xf1\xc2\x9a,\xdb4\xe1?'
p1210
tp1211
Rp1212
sbag1
(g2
g3
Ntp1213
Rp1214
(dp1215
g7
g8
(g9
(I0
tp1216
g11
tp1217
Rp1218
(I1
(I1
I1
tp1219
g18
I00
S'\x8daM\x85\xac\x1d<?'
p1220
tp1221
bsg23
F5.2010138608154266
sg24
F12.538667576156895
sg25
g34
sg35
I0
sg36
I01
sg37
F5.2075393203916445
sg38
I50
sg39
g40
sg41
g8
(g9
(I0
tp1222
g11
tp1223
Rp1224
(I1
(I1
I1
tp1225
g18
I00
S'\xbf\xcc>\xd3\x11\x06\x11A'
p1226
tp1227
bsg48
F0.013050919152435725
sg49
F0.050000000000000003
sg50
g8
(g9
(I0
tp1228
g11
tp1229
Rp1230
(I1
(I1
I1
tp1231
g18
I00
S'\x00\x00\x00\xe0MbP?'
p1232
tp1233
bsg57
g26
(g18
S'\xb2\xdd[\xd8\xe9\x16\xed?'
p1234
tp1235
Rp1236
sbag1
(g2
g3
Ntp1237
Rp1238
(dp1239
g7
g8
(g9
(I0
tp1240
g11
tp1241
Rp1242
(I1
(I1
I1
tp1243
g18
I00
S'-\xe9\xbb\x81W\rI?'
p1244
tp1245
bsg23
F6.7157802757985969
sg24
F14.042819623102318
sg25
g34
sg35
I0
sg36
I01
sg37
F6.7318497234353014
sg38
I51
sg39
g40
sg41
g8
(g9
(I0
tp1246
g11
tp1247
Rp1248
(I1
(I1
I1
tp1249
g18
I00
S"A\xf9\x85\xc01'3A"
p1250
tp1251
bsg48
F0.032138895273408963
sg49
F0.050000000000000003
sg50
g8
(g9
(I0
tp1252
g11
tp1253
Rp1254
(I1
(I1
I1
tp1255
g18
I00
S'\x00\x00\x00\xe0MbP?'
p1256
tp1257
bsg57
g26
(g18
S'\xea*,\xd5wr\xeb?'
p1258
tp1259
Rp1260
sbag1
(g2
g3
Ntp1261
Rp1262
(dp1263
g7
g8
(g9
(I0
tp1264
g11
tp1265
Rp1266
(I1
(I1
I1
tp1267
g18
I00
S'\xa2\xfag3K\x9cJ?'
p1268
tp1269
bsg23
F5.7945269511878452
sg24
F13.061301524567067
sg25
g34
sg35
I0
sg36
I01
sg37
F5.798473835488509
sg38
I52
sg39
g40
sg41
g8
(g9
(I0
tp1270
g11
tp1271
Rp1272
(I1
(I1
I1
tp1273
g18
I00
S'Z\x13\x15\x19\xba\xb5\x1cA'
p1274
tp1275
bsg48
F0.007893768601327622
sg49
F0.050000000000000003
sg50
g8
(g9
(I0
tp1276
g11
tp1277
Rp1278
(I1
(I1
I1
tp1279
g18
I00
S'\x00\x00\x00\xe0MbP?'
p1280
tp1281
bsg57
g26
(g18
S'\x10\x17\xff.\t\xbc\xed?'
p1282
tp1283
Rp1284
sbag1
(g2
g3
Ntp1285
Rp1286
(dp1287
g7
g8
(g9
(I0
tp1288
g11
tp1289
Rp1290
(I1
(I1
I1
tp1291
g18
I00
S'/\x9eI\x1fDa5?'
p1292
tp1293
bsg23
F4.9705269854247423
sg24
F16.040672265520321
sg25
g34
sg35
I0
sg36
I01
sg37
F5.1541296458392178
sg38
I53
sg39
g40
sg41
g8
(g9
(I0
tp1294
g11
tp1295
Rp1296
(I1
(I1
I1
tp1297
g18
I00
S'o>\x0ei\x08\xa7aA'
p1298
tp1299
bsg48
F0.36720532082895119
sg49
F0.050000000000000003
sg50
g8
(g9
(I0
tp1300
g11
tp1301
Rp1302
(I1
(I1
I1
tp1303
g18
I00
S'\x00\x00\x00\xe0MbP?'
p1304
tp1305
bsg57
g26
(g18
S'\x99\x1f\x92t\xcdl\xe1?'
p1306
tp1307
Rp1308
sbag1
(g2
g3
Ntp1309
Rp1310
(dp1311
g7
g8
(g9
(I0
tp1312
g11
tp1313
Rp1314
(I1
(I1
I1
tp1315
g18
I00
S'\xe5npr\xdf\x0e3?'
p1316
tp1317
bsg23
F5.2209682477987025
sg24
F14.185033412987824
sg25
g34
sg35
I0
sg36
I01
sg37
F5.2549937318773674
sg38
I54
sg39
g40
sg41
g8
(g9
(I0
tp1318
g11
tp1319
Rp1320
(I1
(I1
I1
tp1321
g18
I00
S'M#\t\x00\x84\x146A'
p1322
tp1323
bsg48
F0.068050968157329805
sg49
F0.050000000000000003
sg50
g8
(g9
(I0
tp1324
g11
tp1325
Rp1326
(I1
(I1
I1
tp1327
g18
I00
S'\x00\x00\x00\xe0MbP?'
p1328
tp1329
bsg57
g26
(g18
S'\xc6G\x8c\xb8\rj\xe9?'
p1330
tp1331
Rp1332
sbag1
(g2
g3
Ntp1333
Rp1334
(dp1335
g7
g8
(g9
(I0
tp1336
g11
tp1337
Rp1338
(I1
(I1
I1
tp1339
g18
I00
S'\xfbJi\xc2\xeftb?'
p1340
tp1341
bsg23
F5.4552047058717008
sg24
F-1.6719838815424666
sg25
g34
sg35
I0
sg36
I01
sg37
F5.4562363091821631
sg38
I55
sg39
g40
sg41
g8
(g9
(I0
tp1342
g11
tp1343
Rp1344
(I1
(I1
I1
tp1345
g18
I00
S'M\x07E#A\x0c\xc8?'
p1346
tp1347
bsg48
F0.0020632066209245181
sg49
F0.050000000000000003
sg50
g8
(g9
(I0
tp1348
g11
tp1349
Rp1350
(I1
(I1
I1
tp1351
g18
I00
S'\x00\x00\x00\xe0MbP?'
p1352
tp1353
bsg57
g26
(g18
S'\xf1\xf1\xe6E5\xd7\xee?'
p1354
tp1355
Rp1356
sbag1
(g2
g3
Ntp1357
Rp1358
(dp1359
g7
g8
(g9
(I0
tp1360
g11
tp1361
Rp1362
(I1
(I1
I1
tp1363
g18
I00
S'\xfe~zb\x1a\xcbn?'
p1364
tp1365
bsg23
F5.6868845119187359
sg24
F2.4434647928207278
sg25
g34
sg35
I0
sg36
I01
sg37
F5.7001577148574887
sg38
I56
sg39
g40
sg41
g8
(g9
(I0
tp1366
g11
tp1367
Rp1368
(I1
(I1
I1
tp1369
g18
I00
S"!\xb2\xe1\xc4\x95\x06'\xc0"
p1370
tp1371
bsg48
F0.026546405877505563
sg49
F0.050000000000000003
sg50
g8
(g9
(I0
tp1372
g11
tp1373
Rp1374
(I1
(I1
I1
tp1375
g18
I00
S'\x00\x00\x00\xe0MbP?'
p1376
tp1377
bsg57
g26
(g18
S'\xa4A\x03\xf1\xbb\xdb\xeb?'
p1378
tp1379
Rp1380
sbag1
(g2
g3
Ntp1381
Rp1382
(dp1383
g7
g8
(g9
(I0
tp1384
g11
tp1385
Rp1386
(I1
(I1
I1
tp1387
g18
I00
S'\x9aB\x12Ye\x88k?'
p1388
tp1389
bsg23
F5.6832353988862589
sg24
F2.1615167008715472
sg25
g34
sg35
I0
sg36
I01
sg37
F5.693668198009842
sg38
I57
sg39
g40
sg41
g8
(g9
(I0
tp1390
g11
tp1391
Rp1392
(I1
(I1
I1
tp1393
g18
I00
S'qJ\x99u\\^!@'
p1394
tp1395
bsg48
F0.020865598247166162
sg49
F0.050000000000000003
sg50
g8
(g9
(I0
tp1396
g11
tp1397
Rp1398
(I1
(I1
I1
tp1399
g18
I00
S'\x00\x00\x00\xe0MbP?'
p1400
tp1401
bsg57
g26
(g18
S'\xe2Zc\x10\x1dS\xec?'
p1402
tp1403
Rp1404
sbag1
(g2
g3
Ntp1405
Rp1406
(dp1407
g7
g8
(g9
(I0
tp1408
g11
tp1409
Rp1410
(I1
(I1
I1
tp1411
g18
I00
S'\xc2a\x069\xefEG?'
p1412
tp1413
bsg23
F5.0111353307350646
sg24
F12.572944895013519
sg25
g34
sg35
I0
sg36
I01
sg37
F5.014910391886894
sg38
I58
sg39
g40
sg41
g8
(g9
(I0
tp1414
g11
tp1415
Rp1416
(I1
(I1
I1
tp1417
g18
I00
S'\xb6\x8a/\xd4\n\x9e\x11A'
p1418
tp1419
bsg48
F0.0075501223036589238
sg49
F0.050000000000000003
sg50
g8
(g9
(I0
tp1420
g11
tp1421
Rp1422
(I1
(I1
I1
tp1423
g18
I00
S'\x00\x00\x00\xe0MbP?'
p1424
tp1425
bsg57
g26
(g18
S'pP\x03\x97\xc4\xc8\xed?'
p1426
tp1427
Rp1428
sbag1
(g2
g3
Ntp1429
Rp1430
(dp1431
g7
g8
(g9
(I0
tp1432
g11
tp1433
Rp1434
(I1
(I1
I1
tp1435
g18
I00
S'\x00\x00\x00\xe0MbP?'
p1436
tp1437
bsg23
F8.2659378542222921
sg24
F11.546997085932652
sg25
g34
sg35
I0
sg36
I01
sg37
F8.2659378542222921
sg38
I59
sg39
g40
sg41
g8
(g9
(I0
tp1438
g11
tp1439
Rp1440
(I1
(I1
I1
tp1441
g18
I00
S'\xe7f\x85\xee\x9dB\xf9@'
p1442
tp1443
bsg48
F0.0
sg49
F0.050000000000000003
sg50
g8
(g9
(I0
tp1444
g11
tp1445
Rp1446
(I1
(I1
I1
tp1447
g18
I00
S'\x00\x00\x00\xe0MbP?'
p1448
tp1449
bsg57
g26
(g18
S'\x00\x00\x00\x00\x00\x00\xf0?'
p1450
tp1451
Rp1452
sbag1
(g2
g3
Ntp1453
Rp1454
(dp1455
g7
g8
(g9
(I0
tp1456
g11
tp1457
Rp1458
(I1
(I1
I1
tp1459
g18
I00
S'\xbaH\x96"\x95\x95l?'
p1460
tp1461
bsg23
F5.0382216262249528
sg24
F0.36430919887140017
sg25
g34
sg35
I0
sg36
I01
sg37
F5.0421093171487144
sg38
I60
sg39
g40
sg41
g8
(g9
(I0
tp1462
g11
tp1463
Rp1464
(I1
(I1
I1
tp1465
g18
I00
S'\x9f\xc3oTE\x08\xf7?'
p1466
tp1467
bsg48
F0.0077753818475230219
sg49
F0.050000000000000003
sg50
g8
(g9
(I0
tp1468
g11
tp1469
Rp1470
(I1
(I1
I1
tp1471
g18
I00
S'\x00\x00\x00\xe0MbP?'
p1472
tp1473
bsg57
g26
(g18
S'\xe2\x80\x8a\xd4c\xc0\xed?'
p1474
tp1475
Rp1476
sbag1
(g2
g3
Ntp1477
Rp1478
(dp1479
g7
g8
(g9
(I0
tp1480
g11
tp1481
Rp1482
(I1
(I1
I1
tp1483
g18
I00
S'\xc3&\x8f\r\x8c\xa9F?'
p1484
tp1485
bsg23
F6.4549736794041079
sg24
F13.416312023071356
sg25
g34
sg35
I0
sg36
I01
sg37
F6.4675290648599724
sg38
I61
sg39
g40
sg41
g8
(g9
(I0
tp1486
g11
tp1487
Rp1488
(I1
(I1
I1
tp1489
g18
I00
S'\xd4\xb3\xbf\xff\x12y$A'
p1490
tp1491
bsg48
F0.025110770911728864
sg49
F0.050000000000000003
sg50
g8
(g9
(I0
tp1492
g11
tp1493
Rp1494
(I1
(I1
I1
tp1495
g18
I00
S'\x00\x00\x00\xe0MbP?'
p1496
tp1497
bsg57
g26
(g18
S'\xc8\xf9~o\x8e\xf8\xeb?'
p1498
tp1499
Rp1500
sbag1
(g2
g3
Ntp1501
Rp1502
(dp1503
g7
g8
(g9
(I0
tp1504
g11
tp1505
Rp1506
(I1
(I1
I1
tp1507
g18
I00
S'\xcd\xe7\x1a)-9m?'
p1508
tp1509
bsg23
F5.0945719944389198
sg24
F1.3093237630197776
sg25
g34
sg35
I0
sg36
I01
sg37
F5.1042552459362369
sg38
I62
sg39
g40
sg41
g8
(g9
(I0
tp1510
g11
tp1511
Rp1512
(I1
(I1
I1
tp1513
g18
I00
S'J\xc4\x86\xd9\x1c\xa1\r@'
p1514
tp1515
bsg48
F0.01936650299463416
sg49
F0.050000000000000003
sg50
g8
(g9
(I0
tp1516
g11
tp1517
Rp1518
(I1
(I1
I1
tp1519
g18
I00
S'\x00\x00\x00\xe0MbP?'
p1520
tp1521
bsg57
g26
(g18
S'\xcd\xc5V\x12Qu\xec?'
p1522
tp1523
Rp1524
sbag1
(g2
g3
Ntp1525
Rp1526
(dp1527
g7
g8
(g9
(I0
tp1528
g11
tp1529
Rp1530
(I1
(I1
I1
tp1531
g18
I00
S'\xeaa\xc4R\xf3\xf0(?'
p1532
tp1533
bsg23
F4.9970781707946808
sg24
F14.834105276971217
sg25
g34
sg35
I0
sg36
I01
sg37
F5.0496491370366821
sg38
I63
sg39
g40
sg41
g8
(g9
(I0
tp1534
g11
tp1535
Rp1536
(I1
(I1
I1
tp1537
g18
I00
S'\xf25\x081\xca EA'
p1538
tp1539
bsg48
F0.10514193248400261
sg49
F0.050000000000000003
sg50
g8
(g9
(I0
tp1540
g11
tp1541
Rp1542
(I1
(I1
I1
tp1543
g18
I00
S'\x00\x00\x00\xe0MbP?'
p1544
tp1545
bsg57
g26
(g18
S'\xa6H;\r#\xdd\xe7?'
p1546
tp1547
Rp1548
sbag1
(g2
g3
Ntp1549
Rp1550
(dp1551
g7
g8
(g9
(I0
tp1552
g11
tp1553
Rp1554
(I1
(I1
I1
tp1555
g18
I00
S'\x0fs\xd5 \x907<?'
p1556
tp1557
bsg23
F5.5935636978264291
sg24
F-23.933210974602233
sg25
g34
sg35
I0
sg36
I01
sg37
F5.973806754574861
sg38
I64
sg39
g40
sg41
g8
(g9
(I0
tp1558
g11
tp1559
Rp1560
(I1
(I1
I1
tp1561
g18
I00
S'\x00\x00\x00\x00\x000\xc6='
p1562
tp1563
bsg48
F0.76048611349686368
sg49
F0.050000000000000003
sg50
g8
(g9
(I0
tp1564
g11
tp1565
Rp1566
(I1
(I1
I1
tp1567
g18
I00
S'\x00\x00\x00\xe0MbP?'
p1568
tp1569
bsg57
g26
(g18
S'<\xcd\xe6v\xf6\x85\xd8?'
p1570
tp1571
Rp1572
sbag1
(g2
g3
Ntp1573
Rp1574
(dp1575
g7
g8
(g9
(I0
tp1576
g11
tp1577
Rp1578
(I1
(I1
I1
tp1579
g18
I00
S'\x84\x85\x9fQ#\x07F?'
p1580
tp1581
bsg23
F5.2755036647587463
sg24
F10.865661557759708
sg25
g34
sg35
I0
sg36
I01
sg37
F5.2764425864129194
sg38
I65
sg39
g40
sg41
g8
(g9
(I0
tp1582
g11
tp1583
Rp1584
(I1
(I1
I1
tp1585
g18
I00
S'\x93O\xba\x83s\x8f\xe9@'
p1586
tp1587
bsg48
F0.0018778433083461721
sg49
F0.050000000000000003
sg50
g8
(g9
(I0
tp1588
g11
tp1589
Rp1590
(I1
(I1
I1
tp1591
g18
I00
S'\x00\x00\x00\xe0MbP?'
p1592
tp1593
bsg57
g26
(g18
S'\xec\xaf\x94e\xd8\xe4\xee?'
p1594
tp1595
Rp1596
sbag1
(g2
g3
Ntp1597
Rp1598
(dp1599
g7
g8
(g9
(I0
tp1600
g11
tp1601
Rp1602
(I1
(I1
I1
tp1603
g18
I00
S'?{>k\xda#@?'
p1604
tp1605
bsg23
F4.950893089536673
sg24
F13.749701229966886
sg25
g34
sg35
I0
sg36
I01
sg37
F4.9719289669102773
sg38
I66
sg39
g40
sg41
g8
(g9
(I0
tp1606
g11
tp1607
Rp1608
(I1
(I1
I1
tp1609
g18
I00
S'\xb6\x94!\xc0\xea\x92,A'
p1610
tp1611
bsg48
F0.042071754747208701
sg49
F0.050000000000000003
sg50
g8
(g9
(I0
tp1612
g11
tp1613
Rp1614
(I1
(I1
I1
tp1615
g18
I00
S'\x00\x00\x00\xe0MbP?'
p1616
tp1617
bsg57
g26
(g18
S'\th\xa4C\xa9\xcc\xea?'
p1618
tp1619
Rp1620
sbag1
(g2
g3
Ntp1621
Rp1622
(dp1623
g7
g8
(g9
(I0
tp1624
g11
tp1625
Rp1626
(I1
(I1
I1
tp1627
g18
I00
S'M\t\xe1\x0b\xb7An?'
p1628
tp1629
bsg23
F5.5286132814640698
sg24
F0.59417689527235873
sg25
g34
sg35
I0
sg36
I01
sg37
F5.5406806825496888
sg38
I67
sg39
g40
sg41
g8
(g9
(I0
tp1630
g11
tp1631
Rp1632
(I1
(I1
I1
tp1633
g18
I00
S'L\xac0\x93\x10\xfc\xfc?'
p1634
tp1635
bsg48
F0.024134802171237979
sg49
F0.050000000000000003
sg50
g8
(g9
(I0
tp1636
g11
tp1637
Rp1638
(I1
(I1
I1
tp1639
g18
I00
S'\x00\x00\x00\xe0MbP?'
p1640
tp1641
bsg57
g26
(g18
S'N\x07I\xa9\xa2\x0c\xec?'
p1642
tp1643
Rp1644
sbag1
(g2
g3
Ntp1645
Rp1646
(dp1647
g7
g8
(g9
(I0
tp1648
g11
tp1649
Rp1650
(I1
(I1
I1
tp1651
g18
I00
S'\x04\x10\xac_\xf1P<?'
p1652
tp1653
bsg23
F5.003384216223866
sg24
F15.242699561522688
sg25
g34
sg35
I0
sg36
I01
sg37
F5.0976206871681295
sg38
I68
sg39
g40
sg41
g8
(g9
(I0
tp1654
g11
tp1655
Rp1656
(I1
(I1
I1
tp1657
g18
I00
S'?\x13L\xb0\x9c\xcaOA'
p1658
tp1659
bsg48
F0.18847294188852715
sg49
F0.050000000000000003
sg50
g8
(g9
(I0
tp1660
g11
tp1661
Rp1662
(I1
(I1
I1
tp1663
g18
I00
S'\x00\x00\x00\xe0MbP?'
p1664
tp1665
bsg57
g26
(g18
S'\x16\xb1\xad\xb2\x0cA\xe5?'
p1666
tp1667
Rp1668
sbag1
(g2
g3
Ntp1669
Rp1670
(dp1671
g7
g8
(g9
(I0
tp1672
g11
tp1673
Rp1674
(I1
(I1
I1
tp1675
g18
I00
S'\xb8\xae/\x15\x81A>?'
p1676
tp1677
bsg23
F5.6165393584189145
sg24
F14.581356487165694
sg25
g34
sg35
I0
sg36
I01
sg37
F5.6541145448921704
sg38
I69
sg39
g40
sg41
g8
(g9
(I0
tp1678
g11
tp1679
Rp1680
(I1
(I1
I1
tp1681
g18
I00
S'\xffV;\x85\xceh@A'
p1682
tp1683
bsg48
F0.075150372946511723
sg49
F0.050000000000000003
sg50
g8
(g9
(I0
tp1684
g11
tp1685
Rp1686
(I1
(I1
I1
tp1687
g18
I00
S'\x00\x00\x00\xe0MbP?'
p1688
tp1689
bsg57
g26
(g18
S'\xf4\x18\xc6\xf6]\x16\xe9?'
p1690
tp1691
Rp1692
sbag1
(g2
g3
Ntp1693
Rp1694
(dp1695
g7
g8
(g9
(I0
tp1696
g11
tp1697
Rp1698
(I1
(I1
I1
tp1699
g18
I00
S'\x05\x0fK\x86\xc7-P?'
p1700
tp1701
bsg23
F5.0200161906142524
sg24
F9.7664315121617395
sg25
g34
sg35
I0
sg36
I01
sg37
F5.0200232905985231
sg38
I70
sg39
g40
sg41
g8
(g9
(I0
tp1702
g11
tp1703
Rp1704
(I1
(I1
I1
tp1705
g18
I00
S'o^\xe3W\x9b\x07\xd1@'
p1706
tp1707
bsg48
F1.4199968541461772e-05
sg49
F0.050000000000000003
sg50
g8
(g9
(I0
tp1708
g11
tp1709
Rp1710
(I1
(I1
I1
tp1711
g18
I00
S'\x00\x00\x00\xe0MbP?'
p1712
tp1713
bsg57
g26
(g18
S'f\xdf\xa1\x99^\xe7\xef?'
p1714
tp1715
Rp1716
sbag1
(g2
g3
Ntp1717
Rp1718
(dp1719
g7
g8
(g9
(I0
tp1720
g11
tp1721
Rp1722
(I1
(I1
I1
tp1723
g18
I00
S'\xd1\x05\xfe\xf4\xccCn?'
p1724
tp1725
bsg23
F5.300314398081265
sg24
F3.3416555000798231
sg25
g34
sg35
I0
sg36
I01
sg37
F5.3136691862702516
sg38
I71
sg39
g40
sg41
g8
(g9
(I0
tp1726
g11
tp1727
Rp1728
(I1
(I1
I1
tp1729
g18
I00
S'\xac\xffz\xda\x10D<\xc0'
p1730
tp1731
bsg48
F0.026709576377973221
sg49
F0.050000000000000003
sg50
g8
(g9
(I0
tp1732
g11
tp1733
Rp1734
(I1
(I1
I1
tp1735
g18
I00
S'\x00\x00\x00\xe0MbP?'
p1736
tp1737
bsg57
g26
(g18
S'\xd8\xfd\\j\x82\xd8\xeb?'
p1738
tp1739
Rp1740
sbag1
(g2
g3
Ntp1741
Rp1742
(dp1743
g7
g8
(g9
(I0
tp1744
g11
tp1745
Rp1746
(I1
(I1
I1
tp1747
g18
I00
S'\x8f\xad\xb2k"\xbb<?'
p1748
tp1749
bsg23
F5.0543536446930561
sg24
F15.50639777015979
sg25
g34
sg35
I0
sg36
I01
sg37
F5.1667706875790129
sg38
I72
sg39
g40
sg41
g8
(g9
(I0
tp1750
g11
tp1751
Rp1752
(I1
(I1
I1
tp1753
g18
I00
S'c\xb3[\xc4(\xb1TA'
p1754
tp1755
bsg48
F0.22483408577191355
sg49
F0.050000000000000003
sg50
g8
(g9
(I0
tp1756
g11
tp1757
Rp1758
(I1
(I1
I1
tp1759
g18
I00
S'\x00\x00\x00\xe0MbP?'
p1760
tp1761
bsg57
g26
(g18
S'\xd7\x81\x7f\x92\nU\xe4?'
p1762
tp1763
Rp1764
sbag1
(g2
g3
Ntp1765
Rp1766
(dp1767
g7
g8
(g9
(I0
tp1768
g11
tp1769
Rp1770
(I1
(I1
I1
tp1771
g18
I00
S'D\x88\xb8\x0b\x8e\xbdx?'
p1772
tp1773
bsg23
F5.4226830885407153
sg24
F-8.2817631068969764
sg25
g34
sg35
I0
sg36
I01
sg37
F5.4377963144629309
sg38
I73
sg39
g40
sg41
g8
(g9
(I0
tp1774
g11
tp1775
Rp1776
(I1
(I1
I1
tp1777
g18
I00
S"\xd8\x7fW\xc4'\x960\xbf"
p1778
tp1779
bsg48
F0.030226451844431068
sg49
F0.050000000000000003
sg50
g8
(g9
(I0
tp1780
g11
tp1781
Rp1782
(I1
(I1
I1
tp1783
g18
I00
S'\x00\x00\x00\xe0MbP?'
p1784
tp1785
bsg57
g26
(g18
S'\xe2G\xb2\xa3Q\x95\xeb?'
p1786
tp1787
Rp1788
sbag1
(g2
g3
Ntp1789
Rp1790
(dp1791
g7
g8
(g9
(I0
tp1792
g11
tp1793
Rp1794
(I1
(I1
I1
tp1795
g18
I00
S'\xfa\x1aT\xafL\x1f<?'
p1796
tp1797
bsg23
F5.1077150024029372
sg24
F15.762406915603673
sg25
g34
sg35
I0
sg36
I01
sg37
F5.2715088739967904
sg38
I74
sg39
g40
sg41
g8
(g9
(I0
tp1798
g11
tp1799
Rp1800
(I1
(I1
I1
tp1801
g18
I00
S'\xbd\xa0a\xb7\xae\xbaZA'
p1802
tp1803
bsg48
F0.32758774318770634
sg49
F0.050000000000000003
sg50
g8
(g9
(I0
tp1804
g11
tp1805
Rp1806
(I1
(I1
I1
tp1807
g18
I00
S'\x00\x00\x00\xe0MbP?'
p1808
tp1809
bsg57
g26
(g18
S'\xba]\xd12\x8b%\xe2?'
p1810
tp1811
Rp1812
sbag1
(g2
g3
Ntp1813
Rp1814
(dp1815
g7
g8
(g9
(I0
tp1816
g11
tp1817
Rp1818
(I1
(I1
I1
tp1819
g18
I00
S'\xdf\x98\xaa-\xd7(j?'
p1820
tp1821
bsg23
F5.31192948859076
sg24
F4.6357522397586086
sg25
g34
sg35
I0
sg36
I01
sg37
F5.3158281486998842
sg38
I75
sg39
g40
sg41
g8
(g9
(I0
tp1822
g11
tp1823
Rp1824
(I1
(I1
I1
tp1825
g18
I00
S'd\x11\x87\xac\xbf\xc6Y\xc0'
p1826
tp1827
bsg48
F0.0077973202182484158
sg49
F0.050000000000000003
sg50
g8
(g9
(I0
tp1828
g11
tp1829
Rp1830
(I1
(I1
I1
tp1831
g18
I00
S'\x00\x00\x00\xe0MbP?'
p1832
tp1833
bsg57
g26
(g18
S'\xbfS\xb7\xa1\x94\xbf\xed?'
p1834
tp1835
Rp1836
sbag1
(g2
g3
Ntp1837
Rp1838
(dp1839
g7
g8
(g9
(I0
tp1840
g11
tp1841
Rp1842
(I1
(I1
I1
tp1843
g18
I00
S'?{>k\xda#@?'
p1844
tp1845
bsg23
F4.9537545691378178
sg24
F14.022638146328198
sg25
g34
sg35
I0
sg36
I01
sg37
F4.9752833076676346
sg38
I76
sg39
g40
sg41
g8
(g9
(I0
tp1846
g11
tp1847
Rp1848
(I1
(I1
I1
tp1849
g18
I00
S'\xd8\xc6d\x83;\xc52A'
p1850
tp1851
bsg48
F0.043057477059633698
sg49
F0.050000000000000003
sg50
g8
(g9
(I0
tp1852
g11
tp1853
Rp1854
(I1
(I1
I1
tp1855
g18
I00
S'\x00\x00\x00\xe0MbP?'
p1856
tp1857
bsg57
g26
(g18
S'\xb8\x1b\xd9\t`\xbd\xea?'
p1858
tp1859
Rp1860
sbag1
(g2
g3
Ntp1861
Rp1862
(dp1863
g7
g8
(g9
(I0
tp1864
g11
tp1865
Rp1866
(I1
(I1
I1
tp1867
g18
I00
S't"\xbf\xcb\x16Lm?'
p1868
tp1869
bsg23
F5.5539256606594405
sg24
F2.20981808941541
sg25
g34
sg35
I0
sg36
I01
sg37
F5.5846861414494091
sg38
I77
sg39
g40
sg41
g8
(g9
(I0
tp1870
g11
tp1871
Rp1872
(I1
(I1
I1
tp1873
g18
I00
S'\xabLl\xd9e:"@'
p1874
tp1875
bsg48
F0.06152096157993725
sg49
F0.050000000000000003
sg50
g8
(g9
(I0
tp1876
g11
tp1877
Rp1878
(I1
(I1
I1
tp1879
g18
I00
S'\x00\x00\x00\xe0MbP?'
p1880
tp1881
bsg57
g26
(g18
S'snu\x98@\xbb\xe9?'
p1882
tp1883
Rp1884
sbag1
(g2
g3
Ntp1885
Rp1886
(dp1887
g7
g8
(g9
(I0
tp1888
g11
tp1889
Rp1890
(I1
(I1
I1
tp1891
g18
I00
S'\\-\xd4:P\xd1k?'
p1892
tp1893
bsg23
F5.0582969409810667
sg24
F1.7770173606912798
sg25
g34
sg35
I0
sg36
I01
sg37
F5.0674230775162945
sg38
I78
sg39
g40
sg41
g8
(g9
(I0
tp1894
g11
tp1895
Rp1896
(I1
(I1
I1
tp1897
g18
I00
S'y\x80\x19\xbf\x16\xa6\x17@'
p1898
tp1899
bsg48
F0.018252273070455516
sg49
F0.050000000000000003
sg50
g8
(g9
(I0
tp1900
g11
tp1901
Rp1902
(I1
(I1
I1
tp1903
g18
I00
S'\x00\x00\x00\xe0MbP?'
p1904
tp1905
bsg57
g26
(g18
S'\xbb\xc7\x85Z\x9f\x8f\xec?'
p1906
tp1907
Rp1908
sbag1
(g2
g3
Ntp1909
Rp1910
(dp1911
g7
g8
(g9
(I0
tp1912
g11
tp1913
Rp1914
(I1
(I1
I1
tp1915
g18
I00
S'\x9b\xe9\xe0\xe4\x9d\xcak?'
p1916
tp1917
bsg23
F5.6165558637924038
sg24
F2.0308674301017717
sg25
g34
sg35
I0
sg36
I01
sg37
F5.6256391791437554
sg38
I79
sg39
g40
sg41
g8
(g9
(I0
tp1918
g11
tp1919
Rp1920
(I1
(I1
I1
tp1921
g18
I00
S'\xaa)Q/\x97{\x1e@'
p1922
tp1923
bsg48
F0.018166630702703301
sg49
F0.050000000000000003
sg50
g8
(g9
(I0
tp1924
g11
tp1925
Rp1926
(I1
(I1
I1
tp1927
g18
I00
S'\x00\x00\x00\xe0MbP?'
p1928
tp1929
bsg57
g26
(g18
S'$!"\x86\xad\x91\xec?'
p1930
tp1931
Rp1932
sbag1
(g2
g3
Ntp1933
Rp1934
(dp1935
g7
g8
(g9
(I0
tp1936
g11
tp1937
Rp1938
(I1
(I1
I1
tp1939
g18
I00
S'\x95\xa2j\x9b\x90\x80>?'
p1940
tp1941
bsg23
F5.2464382605267943
sg24
F15.763795918657673
sg25
g34
sg35
I0
sg36
I01
sg37
F5.4054672556796666
sg38
I80
sg39
g40
sg41
g8
(g9
(I0
tp1942
g11
tp1943
Rp1944
(I1
(I1
I1
tp1945
g18
I00
S'\xc4I\x8a\x8f1\xc4ZA'
p1946
tp1947
bsg48
F0.31805799030574455
sg49
F0.050000000000000003
sg50
g8
(g9
(I0
tp1948
g11
tp1949
Rp1950
(I1
(I1
I1
tp1951
g18
I00
S'\x00\x00\x00\xe0MbP?'
p1952
tp1953
bsg57
g26
(g18
S'4A\x8f\x910T\xe2?'
p1954
tp1955
Rp1956
sbag1
(g2
g3
Ntp1957
Rp1958
(dp1959
g7
g8
(g9
(I0
tp1960
g11
tp1961
Rp1962
(I1
(I1
I1
tp1963
g18
I00
S"\x03'\xf6\xc9\x99\xfek?"
p1964
tp1965
bsg23
F5.7933424787442718
sg24
F2.2744643589554254
sg25
g34
sg35
I0
sg36
I01
sg37
F5.8061105518514466
sg38
I81
sg39
g40
sg41
g8
(g9
(I0
tp1966
g11
tp1967
Rp1968
(I1
(I1
I1
tp1969
g18
I00
S'e\xce\xa9\x02\x07r#@'
p1970
tp1971
bsg48
F0.025536146214349742
sg49
F0.050000000000000003
sg50
g8
(g9
(I0
tp1972
g11
tp1973
Rp1974
(I1
(I1
I1
tp1975
g18
I00
S'\x00\x00\x00\xe0MbP?'
p1976
tp1977
bsg57
g26
(g18
S'\x19\xc5\xc4%\xee\xef\xeb?'
p1978
tp1979
Rp1980
sbag1
(g2
g3
Ntp1981
Rp1982
(dp1983
g7
g8
(g9
(I0
tp1984
g11
tp1985
Rp1986
(I1
(I1
I1
tp1987
g18
I00
S'\x86\xb9t\\!7<?'
p1988
tp1989
bsg23
F4.9517180018319831
sg24
F14.438644331986293
sg25
g34
sg35
I0
sg36
I01
sg37
F4.994643832224968
sg38
I82
sg39
g40
sg41
g8
(g9
(I0
tp1990
g11
tp1991
Rp1992
(I1
(I1
I1
tp1993
g18
I00
S'c\x01\xbf\xa3:t<A'
p1994
tp1995
bsg48
F0.085851660785969841
sg49
F0.050000000000000003
sg50
g8
(g9
(I0
tp1996
g11
tp1997
Rp1998
(I1
(I1
I1
tp1999
g18
I00
S'\x00\x00\x00\xe0MbP?'
p2000
tp2001
bsg57
g26
(g18
S'\xcd\xf1\x1b\xa4\xe5\x9f\xe8?'
p2002
tp2003
Rp2004
sbag1
(g2
g3
Ntp2005
Rp2006
(dp2007
g7
g8
(g9
(I0
tp2008
g11
tp2009
Rp2010
(I1
(I1
I1
tp2011
g18
I00
S'&L\x96-\x01\xbdk?'
p2012
tp2013
bsg23
F5.6431143670419006
sg24
F0.58291764994692818
sg25
g34
sg35
I0
sg36
I01
sg37
F5.6478278608039485
sg38
I83
sg39
g40
sg41
g8
(g9
(I0
tp2014
g11
tp2015
Rp2016
(I1
(I1
I1
tp2017
g18
I00
S'\xc9l\xc2-\xfd\xa8\xfc?'
p2018
tp2019
bsg48
F0.0094269875240957646
sg49
F0.050000000000000003
sg50
g8
(g9
(I0
tp2020
g11
tp2021
Rp2022
(I1
(I1
I1
tp2023
g18
I00
S'\x00\x00\x00\xe0MbP?'
p2024
tp2025
bsg57
g26
(g18
S'\x91\x19\x17)_\x86\xed?'
p2026
tp2027
Rp2028
sbag1
(g2
g3
Ntp2029
Rp2030
(dp2031
g7
g8
(g9
(I0
tp2032
g11
tp2033
Rp2034
(I1
(I1
I1
tp2035
g18
I00
S'H\x8a\xb0\x18\x98\xedl?'
p2036
tp2037
bsg23
F4.9921970508147133
sg24
F-0.069145396973027559
sg25
g34
sg35
I0
sg36
I01
sg37
F4.9945267867887377
sg38
I84
sg39
g40
sg41
g8
(g9
(I0
tp2038
g11
tp2039
Rp2040
(I1
(I1
I1
tp2041
g18
I00
S'\xb1CLX\xb3\xdc\xed?'
p2042
tp2043
bsg48
F0.0046594719480488322
sg49
F0.050000000000000003
sg50
g8
(g9
(I0
tp2044
g11
tp2045
Rp2046
(I1
(I1
I1
tp2047
g18
I00
S'\x00\x00\x00\xe0MbP?'
p2048
tp2049
bsg57
g26
(g18
S'\xc8\x0b\x87\xa5-B\xee?'
p2050
tp2051
Rp2052
sbag1
(g2
g3
Ntp2053
Rp2054
(dp2055
g7
g8
(g9
(I0
tp2056
g11
tp2057
Rp2058
(I1
(I1
I1
tp2059
g18
I00
S'\x82(\xc1\xe3e\x87j?'
p2060
tp2061
bsg23
F5.1344316847104041
sg24
F1.4496449690738047
sg25
g34
sg35
I0
sg36
I01
sg37
F5.141334241286815
sg38
I85
sg39
g40
sg41
g8
(g9
(I0
tp2062
g11
tp2063
Rp2064
(I1
(I1
I1
tp2065
g18
I00
S'\xb2\x1fv2\xe1\x0b\x11\xc0'
p2066
tp2067
bsg48
F0.013805113152821846
sg49
F0.050000000000000003
sg50
g8
(g9
(I0
tp2068
g11
tp2069
Rp2070
(I1
(I1
I1
tp2071
g18
I00
S'\x00\x00\x00\xe0MbP?'
p2072
tp2073
bsg57
g26
(g18
S'4\x9f\xb1\x80\xc8\x01\xed?'
p2074
tp2075
Rp2076
sbag1
(g2
g3
Ntp2077
Rp2078
(dp2079
g7
g8
(g9
(I0
tp2080
g11
tp2081
Rp2082
(I1
(I1
I1
tp2083
g18
I00
S'\xe5npr\xdf\x0e3?'
p2084
tp2085
bsg23
F5.2273875093070368
sg24
F14.294797068467194
sg25
g34
sg35
I0
sg36
I01
sg37
F5.2617120134704107
sg38
I86
sg39
g40
sg41
g8
(g9
(I0
tp2086
g11
tp2087
Rp2088
(I1
(I1
I1
tp2089
g18
I00
S'\xa8b\xe6\xc2I\xa48A'
p2090
tp2091
bsg48
F0.068649008326747918
sg49
F0.050000000000000003
sg50
g8
(g9
(I0
tp2092
g11
tp2093
Rp2094
(I1
(I1
I1
tp2095
g18
I00
S'\x00\x00\x00\xe0MbP?'
p2096
tp2097
bsg57
g26
(g18
S'\x07\xb8+2\xd4b\xe9?'
p2098
tp2099
Rp2100
sbag1
(g2
g3
Ntp2101
Rp2102
(dp2103
g7
g8
(g9
(I0
tp2104
g11
tp2105
Rp2106
(I1
(I1
I1
tp2107
g18
I00
S'\xc6\x99\xec$\x15Bk?'
p2108
tp2109
bsg23
F5.5358017822172378
sg24
F1.0852753157895791
sg25
g34
sg35
I0
sg36
I01
sg37
F5.5389910379019351
sg38
I87
sg39
g40
sg41
g8
(g9
(I0
tp2110
g11
tp2111
Rp2112
(I1
(I1
I1
tp2113
g18
I00
S'\r\x12\xab\x05\x9a\xae\x07@'
p2114
tp2115
bsg48
F0.0063785113693946016
sg49
F0.050000000000000003
sg50
g8
(g9
(I0
tp2116
g11
tp2117
Rp2118
(I1
(I1
I1
tp2119
g18
I00
S'\x00\x00\x00\xe0MbP?'
p2120
tp2121
bsg57
g26
(g18
S'O\xc6\xc1\x08\x88\xf6\xed?'
p2122
tp2123
Rp2124
sbag1
(g2
g3
Ntp2125
Rp2126
(dp2127
g7
g8
(g9
(I0
tp2128
g11
tp2129
Rp2130
(I1
(I1
I1
tp2131
g18
I00
S'\xd2\x9f\xb2\x08\xff\xa6j?'
p2132
tp2133
bsg23
F5.2360616622626459
sg24
F-1.2175132232227912
sg25
g34
sg35
I0
sg36
I01
sg37
F5.2362875820503714
sg38
I88
sg39
g40
sg41
g8
(g9
(I0
tp2134
g11
tp2135
Rp2136
(I1
(I1
I1
tp2137
g18
I00
S'\x18\xa9\x97=\x18\xf1\xd2?'
p2138
tp2139
bsg48
F0.00045183957545091857
sg49
F0.050000000000000003
sg50
g8
(g9
(I0
tp2140
g11
tp2141
Rp2142
(I1
(I1
I1
tp2143
g18
I00
S'\x00\x00\x00\xe0MbP?'
p2144
tp2145
bsg57
g26
(g18
S'\x84`\xeau\x12u\xef?'
p2146
tp2147
Rp2148
sbag1
(g2
g3
Ntp2149
Rp2150
(dp2151
g7
g8
(g9
(I0
tp2152
g11
tp2153
Rp2154
(I1
(I1
I1
tp2155
g18
I00
S'\xd01\xecz\x8a\xed ?'
p2156
tp2157
bsg23
F5.1376035358503866
sg24
F14.32535089839441
sg25
g34
sg35
I0
sg36
I01
sg37
F5.1788862141459031
sg38
I89
sg39
g40
sg41
g8
(g9
(I0
tp2158
g11
tp2159
Rp2160
(I1
(I1
I1
tp2161
g18
I00
S'\\x$V\x01h9A'
p2162
tp2163
bsg48
F0.082565356591032923
sg49
F0.050000000000000003
sg50
g8
(g9
(I0
tp2164
g11
tp2165
Rp2166
(I1
(I1
I1
tp2167
g18
I00
S'\x00\x00\x00\xe0MbP?'
p2168
tp2169
bsg57
g26
(g18
S'\x16K\xa5>b\xc3\xe8?'
p2170
tp2171
Rp2172
sbag1
(g2
g3
Ntp2173
Rp2174
(dp2175
g7
g8
(g9
(I0
tp2176
g11
tp2177
Rp2178
(I1
(I1
I1
tp2179
g18
I00
S'\x8f\xa79\xc5~\xcbm?'
p2180
tp2181
bsg23
F6.4010936790618898
sg24
F0.7282733423501847
sg25
g34
sg35
I0
sg36
I01
sg37
F6.4091730271735123
sg38
I90
sg39
g40
sg41
g8
(g9
(I0
tp2182
g11
tp2183
Rp2184
(I1
(I1
I1
tp2185
g18
I00
S'\x1a\x92\x97\xfbn\x92\x00@'
p2186
tp2187
bsg48
F0.016158696223245173
sg49
F0.050000000000000003
sg50
g8
(g9
(I0
tp2188
g11
tp2189
Rp2190
(I1
(I1
I1
tp2191
g18
I00
S'\x00\x00\x00\xe0MbP?'
p2192
tp2193
bsg57
g26
(g18
S'X!\x90\xaf\\\xc3\xec?'
p2194
tp2195
Rp2196
sbag1
(g2
g3
Ntp2197
Rp2198
(dp2199
g7
g8
(g9
(I0
tp2200
g11
tp2201
Rp2202
(I1
(I1
I1
tp2203
g18
I00
S'\x95Pp\x9es\x95E?'
p2204
tp2205
bsg23
F6.1204072819302606
sg24
F-25.062572915136993
sg25
g34
sg35
I0
sg36
I01
sg37
F6.165190719812057
sg38
I91
sg39
g40
sg41
g8
(g9
(I0
tp2206
g11
tp2207
Rp2208
(I1
(I1
I1
tp2209
g18
I00
S'\x00\x00\x00\x00\x00\xb0\xac='
p2210
tp2211
bsg48
F0.08956687576359279
sg49
F0.050000000000000003
sg50
g8
(g9
(I0
tp2212
g11
tp2213
Rp2214
(I1
(I1
I1
tp2215
g18
I00
S'\x00\x00\x00\xe0MbP?'
p2216
tp2217
bsg57
g26
(g18
S'\xde\x9f\n\xeb\xa7x\xe8?'
p2218
tp2219
Rp2220
sbag1
(g2
g3
Ntp2221
Rp2222
(dp2223
g7
g8
(g9
(I0
tp2224
g11
tp2225
Rp2226
(I1
(I1
I1
tp2227
g18
I00
S' \x80a\x1d\xd6[<?'
p2228
tp2229
bsg23
F4.9515558571909484
sg24
F14.418434402329099
sg25
g34
sg35
I0
sg36
I01
sg37
F4.9925670071776533
sg38
I92
sg39
g40
sg41
g8
(g9
(I0
tp2230
g11
tp2231
Rp2232
(I1
(I1
I1
tp2233
g18
I00
S'\x0bM40~\xe2;A'
p2234
tp2235
bsg48
F0.082022299973409929
sg49
F0.050000000000000003
sg50
g8
(g9
(I0
tp2236
g11
tp2237
Rp2238
(I1
(I1
I1
tp2239
g18
I00
S'\x00\x00\x00\xe0MbP?'
p2240
tp2241
bsg57
g26
(g18
S'-\x0cq4R\xc9\xe8?'
p2242
tp2243
Rp2244
sbag1
(g2
g3
Ntp2245
Rp2246
(dp2247
g7
g8
(g9
(I0
tp2248
g11
tp2249
Rp2250
(I1
(I1
I1
tp2251
g18
I00
S'\xe8:uw\xeb\xc1n?'
p2252
tp2253
bsg23
F5.4473718812746421
sg24
F0.58384415691953562
sg25
g34
sg35
I0
sg36
I01
sg37
F5.4512255241608667
sg38
I93
sg39
g40
sg41
g8
(g9
(I0
tp2254
g11
tp2255
Rp2256
(I1
(I1
I1
tp2257
g18
I00
S'~\x9f\xf36\xca\xaf\xfc\xbf'
p2258
tp2259
bsg48
F0.0077072857724491683
sg49
F0.050000000000000003
sg50
g8
(g9
(I0
tp2260
g11
tp2261
Rp2262
(I1
(I1
I1
tp2263
g18
I00
S'\x00\x00\x00\xe0MbP?'
p2264
tp2265
bsg57
g26
(g18
S'\xc8\xd7\x0c\xda\xe8\xc2\xed?'
p2266
tp2267
Rp2268
sbag1
(g2
g3
Ntp2269
Rp2270
(dp2271
g7
g8
(g9
(I0
tp2272
g11
tp2273
Rp2274
(I1
(I1
I1
tp2275
g18
I00
S'\xcc\xa6Z\xe6\xd1\xban?'
p2276
tp2277
bsg23
F6.5541076449134126
sg24
F2.012187920796813
sg25
g34
sg35
I0
sg36
I01
sg37
F6.6179936779680935
sg38
I94
sg39
g40
sg41
g8
(g9
(I0
tp2278
g11
tp2279
Rp2280
(I1
(I1
I1
tp2281
g18
I00
S'\x90\x8e\n#-\xeb\x1d@'
p2282
tp2283
bsg48
F0.12777206610936176
sg49
F0.050000000000000003
sg50
g8
(g9
(I0
tp2284
g11
tp2285
Rp2286
(I1
(I1
I1
tp2287
g18
I00
S'\x00\x00\x00\xe0MbP?'
p2288
tp2289
bsg57
g26
(g18
S'\xebB\x08Ai\x10\xe7?'
p2290
tp2291
Rp2292
sbag1
(g2
g3
Ntp2293
Rp2294
(dp2295
g7
g8
(g9
(I0
tp2296
g11
tp2297
Rp2298
(I1
(I1
I1
tp2299
g18
I00
S'\x11\xfcB\x82\xc1ak?'
p2300
tp2301
bsg23
F5.1511504220468725
sg24
F1.9683813747540226
sg25
g34
sg35
I0
sg36
I01
sg37
F5.1616817346264581
sg38
I95
sg39
g40
sg41
g8
(g9
(I0
tp2302
g11
tp2303
Rp2304
(I1
(I1
I1
tp2305
g18
I00
S'\xff|\xfe\xaa\xe5\xa2\x1c@'
p2306
tp2307
bsg48
F0.021062625159171233
sg49
F0.050000000000000003
sg50
g8
(g9
(I0
tp2308
g11
tp2309
Rp2310
(I1
(I1
I1
tp2311
g18
I00
S'\x00\x00\x00\xe0MbP?'
p2312
tp2313
bsg57
g26
(g18
S'\xf3\n\x7fr\xb6N\xec?'
p2314
tp2315
Rp2316
sbag1
(g2
g3
Ntp2317
Rp2318
(dp2319
g7
g8
(g9
(I0
tp2320
g11
tp2321
Rp2322
(I1
(I1
I1
tp2323
g18
I00
S'\xb7\xd9>8\xee\nh?'
p2324
tp2325
bsg23
F5.0651564522395205
sg24
F0.89120070633099535
sg25
g34
sg35
I0
sg36
I01
sg37
F5.0655713378567473
sg38
I96
sg39
g40
sg41
g8
(g9
(I0
tp2326
g11
tp2327
Rp2328
(I1
(I1
I1
tp2329
g18
I00
S'L\x87\xd0 #\x81\x03@'
p2330
tp2331
bsg48
F0.00082977123445360235
sg49
F0.050000000000000003
sg50
g8
(g9
(I0
tp2332
g11
tp2333
Rp2334
(I1
(I1
I1
tp2335
g18
I00
S'\x00\x00\x00\xe0MbP?'
p2336
tp2337
bsg57
g26
(g18
S'Xu\x05n\xbeC\xef?'
p2338
tp2339
Rp2340
sbag1
(g2
g3
Ntp2341
Rp2342
(dp2343
g7
g8
(g9
(I0
tp2344
g11
tp2345
Rp2346
(I1
(I1
I1
tp2347
g18
I00
S'yG\xba\xf8\x14uC?'
p2348
tp2349
bsg23
F5.7641503706609161
sg24
F13.56282565745609
sg25
g34
sg35
I0
sg36
I01
sg37
F5.7773811526569103
sg38
I97
sg39
g40
sg41
g8
(g9
(I0
tp2350
g11
tp2351
Rp2352
(I1
(I1
I1
tp2353
g18
I00
S"=a\x86+\x11\xb4'A"
p2354
tp2355
bsg48
F0.026461563991988513
sg49
F0.050000000000000003
sg50
g8
(g9
(I0
tp2356
g11
tp2357
Rp2358
(I1
(I1
I1
tp2359
g18
I00
S'\x00\x00\x00\xe0MbP?'
p2360
tp2361
bsg57
g26
(g18
S'+\xfd\xc05j\xdd\xeb?'
p2362
tp2363
Rp2364
sbag1
(g2
g3
Ntp2365
Rp2366
(dp2367
g7
g8
(g9
(I0
tp2368
g11
tp2369
Rp2370
(I1
(I1
I1
tp2371
g18
I00
S'O\x96\xbeU}dU?'
p2372
tp2373
bsg23
F5.8575396619647719
sg24
F6.6968037398243565
sg25
g34
sg35
I0
sg36
I01
sg37
F5.8577468371270713
sg38
I98
sg39
g40
sg41
g8
(g9
(I0
tp2374
g11
tp2375
Rp2376
(I1
(I1
I1
tp2377
g18
I00
S'}\x90\xc2\xa8\x81N\x89@'
p2378
tp2379
bsg48
F0.00041435032459880006
sg49
F0.050000000000000003
sg50
g8
(g9
(I0
tp2380
g11
tp2381
Rp2382
(I1
(I1
I1
tp2383
g18
I00
S'\x00\x00\x00\xe0MbP?'
p2384
tp2385
bsg57
g26
(g18
S'\x82\xa7\n\xa2\xf5z\xef?'
p2386
tp2387
Rp2388
sbag1
(g2
g3
Ntp2389
Rp2390
(dp2391
g7
g8
(g9
(I0
tp2392
g11
tp2393
Rp2394
(I1
(I1
I1
tp2395
g18
I00
S'\xcfkv\xe7\x08\xdf>?'
p2396
tp2397
bsg23
F5.0299077792035591
sg24
F15.001585480824357
sg25
g34
sg35
I0
sg36
I01
sg37
F5.1063145025047509
sg38
I99
sg39
g40
sg41
g8
(g9
(I0
tp2398
g11
tp2399
Rp2400
(I1
(I1
I1
tp2401
g18
I00
S'\xa5\xd0O9\xee\xfaHA'
p2402
tp2403
bsg48
F0.15281344660238361
sg49
F0.050000000000000003
sg50
g8
(g9
(I0
tp2404
g11
tp2405
Rp2406
(I1
(I1
I1
tp2407
g18
I00
S'\x00\x00\x00\xe0MbP?'
p2408
tp2409
bsg57
g26
(g18
S'\x94\xfb\xe2}~D\xe6?'
p2410
tp2411
Rp2412
sbag1
(g2
g3
Ntp2413
Rp2414
(dp2415
g7
g8
(g9
(I0
tp2416
g11
tp2417
Rp2418
(I1
(I1
I1
tp2419
g18
I00
S'`\xb3\x0eZ\xfa\x0bg?'
p2420
tp2421
bsg23
F5.108402621563096
sg24
F1.4649220574271917
sg25
g34
sg35
I0
sg36
I01
sg37
F5.1088113779776378
sg38
I100
sg39
g40
sg41
g8
(g9
(I0
tp2422
g11
tp2423
Rp2424
(I1
(I1
I1
tp2425
g18
I00
S'\xe8\xec\xd6\x13\x0fO\x11@'
p2426
tp2427
bsg48
F0.00081751282908371081
sg49
F0.050000000000000003
sg50
g8
(g9
(I0
tp2428
g11
tp2429
Rp2430
(I1
(I1
I1
tp2431
g18
I00
S'\x00\x00\x00\xe0MbP?'
p2432
tp2433
bsg57
g26
(g18
S'a\x11\xe3\xa4#E\xef?'
p2434
tp2435
Rp2436
sba.