(lp0
ccopy_reg
_reconstructor
p1
(ctestcr
WOHoc
p2
c__builtin__
object
p3
Ntp4
Rp5
(dp6
S'mle'
p7
cnumpy.core.multiarray
_reconstruct
p8
(cnumpy.core.defmatrix
matrix
p9
(I0
tp10
S'b'
p11
tp12
Rp13
(I1
(I1
I1
tp14
cnumpy
dtype
p15
(S'f8'
p16
I0
I1
tp17
Rp18
(I3
S'<'
p19
NNNI-1
I-1
I0
tp20
bI00
S'8%\xe4\x07\x11\xc3X?'
p21
tp22
bsS'ml'
p23
F13.681680529668336
sS'precision'
p24
F13.571380768423857
sS'covers'
p25
cnumpy.core.multiarray
scalar
p26
(g15
(S'b1'
p27
I0
I1
tp28
Rp29
(I3
S'|'
p30
NNNI-1
I-1
I0
tp31
bS'\x01'
p32
tp33
Rp34
sS'n'
p35
I0
sS'likefailed'
p36
I01
sS'tl'
p37
F13.79281311373837
sS'seed'
p38
I1
sS'modelses'
p39
S'rc32.ses'
p40
sS'H'
p41
g8
(g9
(I0
tp42
g11
tp43
Rp44
(I1
(I1
I1
tp45
g18
I00
S"n\xf2\x9b\xe73\xe8'A"
p46
tp47
bsS'CS'
p48
F0.22226516814006914
sS'alpha'
p49
F0.050000000000000003
sS'true'
p50
g8
(g9
(I0
tp51
g11
tp52
Rp53
(I1
(I1
I1
tp54
g18
I00
S'\x00\x00\x00\xe0MbP?'
p55
tp56
bsS'pValue'
p57
g26
(g18
S'g\x8e,\x96\xebd\xe4?'
p58
tp59
Rp60
sbag1
(g2
g3
Ntp61
Rp62
(dp63
g7
g8
(g9
(I0
tp64
g11
tp65
Rp66
(I1
(I1
I1
tp67
g18
I00
S'\xb4\xd0F\x89\xa3LC?'
p68
tp69
bsg23
F19.551422283121397
sg24
F16.666285302993085
sg25
g34
sg35
I0
sg36
I01
sg37
F20.921425432844831
sg38
I2
sg39
g40
sg41
g8
(g9
(I0
tp70
g11
tp71
Rp72
(I1
(I1
I1
tp73
g18
I00
S'\x8d\xcas\xca\xeb\x7fpA'
p74
tp75
bsg48
F2.7400062994468684
sg49
F0.050000000000000003
sg50
g8
(g9
(I0
tp76
g11
tp77
Rp78
(I1
(I1
I1
tp79
g18
I00
S'\x00\x00\x00\xe0MbP?'
p80
tp81
bsg57
g26
(g18
S'\xa9G\xef\xdb\xa3\r\xb9?'
p82
tp83
Rp84
sbag1
(g2
g3
Ntp85
Rp86
(dp87
g7
g8
(g9
(I0
tp88
g11
tp89
Rp90
(I1
(I1
I1
tp91
g18
I00
S'\xfa\xb8.\xe1\x9c\xc5P?'
p92
tp93
bsg23
F14.499061296301823
sg24
F17.527706042030768
sg25
g34
sg35
I0
sg36
I01
sg37
F14.509900665151623
sg38
I3
sg39
g40
sg41
g8
(g9
(I0
tp94
g11
tp95
Rp96
(I1
(I1
I1
tp97
g18
I00
S'~g\x87w\xff\x85\x83A'
p98
tp99
bsg48
F0.021678737699598827
sg49
F0.050000000000000003
sg50
g8
(g9
(I0
tp100
g11
tp101
Rp102
(I1
(I1
I1
tp103
g18
I00
S'\x00\x00\x00\xe0MbP?'
p104
tp105
bsg57
g26
(g18
S'\xa0\xe0B\xc3\x15A\xec?'
p106
tp107
Rp108
sbag1
(g2
g3
Ntp109
Rp110
(dp111
g7
g8
(g9
(I0
tp112
g11
tp113
Rp114
(I1
(I1
I1
tp115
g18
I00
S'\x89b\xfb\x89\xa0\xc4O?'
p116
tp117
bsg23
F23.676480502407394
sg24
F18.916379128027327
sg25
g34
sg35
I0
sg36
I01
sg37
F23.755584083081771
sg38
I4
sg39
g40
sg41
g8
(g9
(I0
tp118
g11
tp119
Rp120
(I1
(I1
I1
tp121
g18
I00
S'1\xaci\xa3\xe6\x91\xa3A'
p122
tp123
bsg48
F0.15820716134875568
sg49
F0.050000000000000003
sg50
g8
(g9
(I0
tp124
g11
tp125
Rp126
(I1
(I1
I1
tp127
g18
I00
S'\x00\x00\x00\xe0MbP?'
p128
tp129
bsg57
g26
(g18
S'FS\r\xe2"\x1b\xe6?'
p130
tp131
Rp132
sbag1
(g2
g3
Ntp133
Rp134
(dp135
g7
g8
(g9
(I0
tp136
g11
tp137
Rp138
(I1
(I1
I1
tp139
g18
I00
S't\xfay=g\xd8P?'
p140
tp141
bsg23
F14.652097241219769
sg24
F18.166700134880596
sg25
g34
sg35
I0
sg36
I01
sg37
F14.681572994267331
sg38
I5
sg39
g40
sg41
g8
(g9
(I0
tp142
g11
tp143
Rp144
(I1
(I1
I1
tp145
g18
I00
S'\x7f8n\xf1\x89~\x92A'
p146
tp147
bsg48
F0.058951506095123563
sg49
F0.050000000000000003
sg50
g8
(g9
(I0
tp148
g11
tp149
Rp150
(I1
(I1
I1
tp151
g18
I00
S'\x00\x00\x00\xe0MbP?'
p152
tp153
bsg57
g26
(g18
S'~Jd.t\xdc\xe9?'
p154
tp155
Rp156
sbag1
(g2
g3
Ntp157
Rp158
(dp159
g7
g8
(g9
(I0
tp160
g11
tp161
Rp162
(I1
(I1
I1
tp163
g18
I00
S'\xbfZJ_f\xf6P?'
p164
tp165
bsg23
F21.658601358821315
sg24
F18.820922461535034
sg25
g34
sg35
I0
sg36
I01
sg37
F21.749322205940057
sg38
I6
sg39
g40
sg41
g8
(g9
(I0
tp166
g11
tp167
Rp168
(I1
(I1
I1
tp169
g18
I00
S'\x97\x17L\xcc\xc9\xc9\xa1A'
p170
tp171
bsg48
F0.1814416942374848
sg49
F0.050000000000000003
sg50
g8
(g9
(I0
tp172
g11
tp173
Rp174
(I1
(I1
I1
tp175
g18
I00
S'\x00\x00\x00\xe0MbP?'
p176
tp177
bsg57
g26
(g18
S'\x92\xe9\x1c\x8b\xc3q\xe5?'
p178
tp179
Rp180
sbag1
(g2
g3
Ntp181
Rp182
(dp183
g7
g8
(g9
(I0
tp184
g11
tp185
Rp186
(I1
(I1
I1
tp187
g18
I00
S'7i\xbf2=FR?'
p188
tp189
bsg23
F17.119858011088478
sg24
F18.704878864703005
sg25
g34
sg35
I0
sg36
I01
sg37
F18.008742329506745
sg38
I7
sg39
g40
sg41
g8
(g9
(I0
tp190
g11
tp191
Rp192
(I1
(I1
I1
tp193
g18
I00
S'\tB\xc8\xba\xb7\xad\x9fA'
p194
tp195
bsg48
F1.7777686368365337
sg49
F0.050000000000000003
sg50
g8
(g9
(I0
tp196
g11
tp197
Rp198
(I1
(I1
I1
tp199
g18
I00
S'\x00\x00\x00\xe0MbP?'
p200
tp201
bsg57
g26
(g18
S'\x94\x87f\xc4\xa7Y\xc7?'
p202
tp203
Rp204
sbag1
(g2
g3
Ntp205
Rp206
(dp207
g7
g8
(g9
(I0
tp208
g11
tp209
Rp210
(I1
(I1
I1
tp211
g18
I00
S"\xc9\xb8\x1f\xb3'\x8dX?"
p212
tp213
bsg23
F20.646367046968582
sg24
F15.756596162474644
sg25
g34
sg35
I0
sg36
I01
sg37
F21.582281257361871
sg38
I8
sg39
g40
sg41
g8
(g9
(I0
tp214
g11
tp215
Rp216
(I1
(I1
I1
tp217
g18
I00
S'\xdcm\x8ba\t\x93ZA'
p218
tp219
bsg48
F1.8718284207865779
sg49
F0.050000000000000003
sg50
g8
(g9
(I0
tp220
g11
tp221
Rp222
(I1
(I1
I1
tp223
g18
I00
S'\x00\x00\x00\xe0MbP?'
p224
tp225
bsg57
g26
(g18
S'h\xb6J\xc9\t\xec\xc5?'
p226
tp227
Rp228
sbag1
(g2
g3
Ntp229
Rp230
(dp231
g7
g8
(g9
(I0
tp232
g11
tp233
Rp234
(I1
(I1
I1
tp235
g18
I00
S'\xc9N\xda\xd9z\xe5L?'
p236
tp237
bsg23
F16.231651699256595
sg24
F15.461425281362326
sg25
g34
sg35
I0
sg36
I01
sg37
F16.267674496592203
sg38
I9
sg39
g40
sg41
g8
(g9
(I0
tp238
g11
tp239
Rp240
(I1
(I1
I1
tp241
g18
I00
S' "\x08\xd15\xc8SA'
p242
tp243
bsg48
F0.072045594671216406
sg49
F0.050000000000000003
sg50
g8
(g9
(I0
tp244
g11
tp245
Rp246
(I1
(I1
I1
tp247
g18
I00
S'\x00\x00\x00\xe0MbP?'
p248
tp249
bsg57
g26
(g18
S'\x18\xb7I\x88k:\xe9?'
p250
tp251
Rp252
sbag1
(g2
g3
Ntp253
Rp254
(dp255
g7
g8
(g9
(I0
tp256
g11
tp257
Rp258
(I1
(I1
I1
tp259
g18
I00
S'\xeaBQE%3N?'
p260
tp261
bsg23
F17.864484472193112
sg24
F17.523697502578351
sg25
g34
sg35
I0
sg36
I01
sg37
F17.986124825707851
sg38
I10
sg39
g40
sg41
g8
(g9
(I0
tp262
g11
tp263
Rp264
(I1
(I1
I1
tp265
g18
I00
S'}uZ\xdb\x00r\x83A'
p266
tp267
bsg48
F0.24328070702947713
sg49
F0.050000000000000003
sg50
g8
(g9
(I0
tp268
g11
tp269
Rp270
(I1
(I1
I1
tp271
g18
I00
S'\x00\x00\x00\xe0MbP?'
p272
tp273
bsg57
g26
(g18
S'|\xed\xe2\xd2*\xe6\xe3?'
p274
tp275
Rp276
sbag1
(g2
g3
Ntp277
Rp278
(dp279
g7
g8
(g9
(I0
tp280
g11
tp281
Rp282
(I1
(I1
I1
tp283
g18
I00
S'\xd2\x8e\xe6\xb2gaP?'
p284
tp285
bsg23
F25.248221785327907
sg24
F17.238779886442632
sg25
g34
sg35
I0
sg36
I01
sg37
F25.248227971221816
sg38
I11
sg39
g40
sg41
g8
(g9
(I0
tp286
g11
tp287
Rp288
(I1
(I1
I1
tp289
g18
I00
S'\x15\x05w\x00\xad?}A'
p290
tp291
bsg48
F1.2371787818210578e-05
sg49
F0.050000000000000003
sg50
g8
(g9
(I0
tp292
g11
tp293
Rp294
(I1
(I1
I1
tp295
g18
I00
S'\x00\x00\x00\xe0MbP?'
p296
tp297
bsg57
g26
(g18
S'\xbf\xdeBy\x02\xe9\xef?'
p298
tp299
Rp300
sbag1
(g2
g3
Ntp301
Rp302
(dp303
g7
g8
(g9
(I0
tp304
g11
tp305
Rp306
(I1
(I1
I1
tp307
g18
I00
S'\xe4\x17\xdb(\xdd\xf00?'
p308
tp309
bsg23
F13.791040807173408
sg24
F16.429037736426796
sg25
g26
(g29
S'\x00'
p310
tp311
Rp312
sg35
I0
sg36
I01
sg37
F17.131716450975965
sg38
I12
sg39
g40
sg41
g8
(g9
(I0
tp313
g11
tp314
Rp315
(I1
(I1
I1
tp316
g18
I00
S'}\xd4Y\xba\x9f\x07jA'
p317
tp318
bsg48
F6.6813512876051142
sg49
F0.050000000000000003
sg50
g8
(g9
(I0
tp319
g11
tp320
Rp321
(I1
(I1
I1
tp322
g18
I00
S'\x00\x00\x00\xe0MbP?'
p323
tp324
bsg57
g26
(g18
S'\xf7\xe1\x82\x8f\xf7\xf3\x83?'
p325
tp326
Rp327
sbag1
(g2
g3
Ntp328
Rp329
(dp330
g7
g8
(g9
(I0
tp331
g11
tp332
Rp333
(I1
(I1
I1
tp334
g18
I00
S'\xb7VR\x12-\xfdM?'
p335
tp336
bsg23
F19.964086999108066
sg24
F17.350984818594529
sg25
g34
sg35
I0
sg36
I01
sg37
F20.083250157724937
sg38
I13
sg39
g40
sg41
g8
(g9
(I0
tp337
g11
tp338
Rp339
(I1
(I1
I1
tp340
g18
I00
S'v\xa9\xc6\x9ac\\\x80A'
p341
tp342
bsg48
F0.2383263172337422
sg49
F0.050000000000000003
sg50
g8
(g9
(I0
tp343
g11
tp344
Rp345
(I1
(I1
I1
tp346
g18
I00
S'\x00\x00\x00\xe0MbP?'
p347
tp348
bsg57
g26
(g18
S'\xb8\x9d\xfd\xaek\x03\xe4?'
p349
tp350
Rp351
sbag1
(g2
g3
Ntp352
Rp353
(dp354
g7
g8
(g9
(I0
tp355
g11
tp356
Rp357
(I1
(I1
I1
tp358
g18
I00
S'\xedm4\xac\xe6\xe4N?'
p359
tp360
bsg23
F17.291481498570093
sg24
F16.584815386689542
sg25
g34
sg35
I0
sg36
I01
sg37
F17.317360013354293
sg38
I14
sg39
g40
sg41
g8
(g9
(I0
tp361
g11
tp362
Rp363
(I1
(I1
I1
tp364
g18
I00
S'\x03\xaa1\xfc\xe2jnA'
p365
tp366
bsg48
F0.05175702956839956
sg49
F0.050000000000000003
sg50
g8
(g9
(I0
tp367
g11
tp368
Rp369
(I1
(I1
I1
tp370
g18
I00
S'\x00\x00\x00\xe0MbP?'
p371
tp372
bsg57
g26
(g18
S'\x84N\xa1.\xb7=\xea?'
p373
tp374
Rp375
sbag1
(g2
g3
Ntp376
Rp377
(dp378
g7
g8
(g9
(I0
tp379
g11
tp380
Rp381
(I1
(I1
I1
tp382
g18
I00
S'\xf4j \x94\xea\xee[?'
p383
tp384
bsg23
F10.771275206240823
sg24
F14.949530176581071
sg25
g34
sg35
I0
sg36
I01
sg37
F11.635312385424038
sg38
I15
sg39
g40
sg41
g8
(g9
(I0
tp385
g11
tp386
Rp387
(I1
(I1
I1
tp388
g18
I00
S'\xbf Rs\x8e\xb6GA'
p389
tp390
bsg48
F1.7280743583664311
sg49
F0.050000000000000003
sg50
g8
(g9
(I0
tp391
g11
tp392
Rp393
(I1
(I1
I1
tp394
g18
I00
S'\x00\x00\x00\xe0MbP?'
p395
tp396
bsg57
g26
(g18
S'(<\xfc\xac\xe9%\xc8?'
p397
tp398
Rp399
sbag1
(g2
g3
Ntp400
Rp401
(dp402
g7
g8
(g9
(I0
tp403
g11
tp404
Rp405
(I1
(I1
I1
tp406
g18
I00
S'\xbbL\xf4\xa8\x8b\xbaU?'
p407
tp408
bsg23
F11.421794087478442
sg24
F16.289568423380189
sg25
g34
sg35
I0
sg36
I01
sg37
F12.084410616324403
sg38
I16
sg39
g40
sg41
g8
(g9
(I0
tp409
g11
tp410
Rp411
(I1
(I1
I1
tp412
g18
I00
S'\xe3o\xf5\xc6&\xa4fA'
p413
tp414
bsg48
F1.3252330576919213
sg49
F0.050000000000000003
sg50
g8
(g9
(I0
tp415
g11
tp416
Rp417
(I1
(I1
I1
tp418
g18
I00
S'\x00\x00\x00\xe0MbP?'
p419
tp420
bsg57
g26
(g18
S'Xnx:\xb2\xf4\xcf?'
p421
tp422
Rp423
sbag1
(g2
g3
Ntp424
Rp425
(dp426
g7
g8
(g9
(I0
tp427
g11
tp428
Rp429
(I1
(I1
I1
tp430
g18
I00
S'\xbd_Q\tl\xbfJ?'
p431
tp432
bsg23
F17.442559901887108
sg24
F17.001757476674609
sg25
g34
sg35
I0
sg36
I01
sg37
F17.842650545973388
sg38
I17
sg39
g40
sg41
g8
(g9
(I0
tp433
g11
tp434
Rp435
(I1
(I1
I1
tp436
g18
I00
S'A\x0f\x87\x1d\x94\x13wA'
p437
tp438
bsg48
F0.80018128817255985
sg49
F0.050000000000000003
sg50
g8
(g9
(I0
tp439
g11
tp440
Rp441
(I1
(I1
I1
tp442
g18
I00
S'\x00\x00\x00\xe0MbP?'
p443
tp444
bsg57
g26
(g18
S'\x0e\xac@\x16\x1b\xbf\xd7?'
p445
tp446
Rp447
sbag1
(g2
g3
Ntp448
Rp449
(dp450
g7
g8
(g9
(I0
tp451
g11
tp452
Rp453
(I1
(I1
I1
tp454
g18
I00
S'\x03\xfe\t\x9d\xb3\xd1Q?'
p455
tp456
bsg23
F22.415352204788174
sg24
F19.427421249155223
sg25
g34
sg35
I0
sg36
I01
sg37
F23.461393946694209
sg38
I18
sg39
g40
sg41
g8
(g9
(I0
tp457
g11
tp458
Rp459
(I1
(I1
I1
tp460
g18
I00
S'J\x873G\xd2O\xb0A'
p461
tp462
bsg48
F2.0920834838120683
sg49
F0.050000000000000003
sg50
g8
(g9
(I0
tp463
g11
tp464
Rp465
(I1
(I1
I1
tp466
g18
I00
S'\x00\x00\x00\xe0MbP?'
p467
tp468
bsg57
g26
(g18
S'\xf6\x97J\n\xc3\xf3\xc2?'
p469
tp470
Rp471
sbag1
(g2
g3
Ntp472
Rp473
(dp474
g7
g8
(g9
(I0
tp475
g11
tp476
Rp477
(I1
(I1
I1
tp478
g18
I00
S'\x1e\xbb\xa4q\xbc\xe5`?'
p479
tp480
bsg23
F17.151753674156527
sg24
F13.56929227637748
sg25
g34
sg35
I0
sg36
I01
sg37
F17.678064080228275
sg38
I19
sg39
g40
sg41
g8
(g9
(I0
tp481
g11
tp482
Rp483
(I1
(I1
I1
tp484
g18
I00
S"\x93\x9f\xef o\xdb'A"
p485
tp486
bsg48
F1.0526208121434948
sg49
F0.050000000000000003
sg50
g8
(g9
(I0
tp487
g11
tp488
Rp489
(I1
(I1
I1
tp490
g18
I00
S'\x00\x00\x00\xe0MbP?'
p491
tp492
bsg57
g26
(g18
S'TJ\xea)\x8d\x83\xd3?'
p493
tp494
Rp495
sbag1
(g2
g3
Ntp496
Rp497
(dp498
g7
g8
(g9
(I0
tp499
g11
tp500
Rp501
(I1
(I1
I1
tp502
g18
I00
S'\x94\x0f\xc3\x06\xb8\xeaX?'
p503
tp504
bsg23
F16.935753055969961
sg24
F15.198609661390051
sg25
g34
sg35
I0
sg36
I01
sg37
F17.522774572645378
sg38
I20
sg39
g40
sg41
g8
(g9
(I0
tp505
g11
tp506
Rp507
(I1
(I1
I1
tp508
g18
I00
S'\x8e{\xf4\xae\x93kNA'
p509
tp510
bsg48
F1.1740430333508343
sg49
F0.050000000000000003
sg50
g8
(g9
(I0
tp511
g11
tp512
Rp513
(I1
(I1
I1
tp514
g18
I00
S'\x00\x00\x00\xe0MbP?'
p515
tp516
bsg57
g26
(g18
S'\xecJ\x91\xe8\x1f\xd4\xd1?'
p517
tp518
Rp519
sbag1
(g2
g3
Ntp520
Rp521
(dp522
g7
g8
(g9
(I0
tp523
g11
tp524
Rp525
(I1
(I1
I1
tp526
g18
I00
S'\xf37(\x85%\x14K?'
p527
tp528
bsg23
F20.611651926945804
sg24
F15.188549603257455
sg25
g34
sg35
I0
sg36
I01
sg37
F20.6700582634586
sg38
I21
sg39
g40
sg41
g8
(g9
(I0
tp529
g11
tp530
Rp531
(I1
(I1
I1
tp532
g18
I00
S'\xc0\x1dHL\xa0\x1dNA'
p533
tp534
bsg48
F0.11681267302559206
sg49
F0.050000000000000003
sg50
g8
(g9
(I0
tp535
g11
tp536
Rp537
(I1
(I1
I1
tp538
g18
I00
S'\x00\x00\x00\xe0MbP?'
p539
tp540
bsg57
g26
(g18
S'\xfa>6n\xc8p\xe7?'
p541
tp542
Rp543
sbag1
(g2
g3
Ntp544
Rp545
(dp546
g7
g8
(g9
(I0
tp547
g11
tp548
Rp549
(I1
(I1
I1
tp550
g18
I00
S'\xd4\xc2\x0c\xc0"\xb0T?'
p551
tp552
bsg23
F20.130958247617937
sg24
F17.557695899278485
sg25
g34
sg35
I0
sg36
I01
sg37
F21.640587465506322
sg38
I22
sg39
g40
sg41
g8
(g9
(I0
tp553
g11
tp554
Rp555
(I1
(I1
I1
tp556
g18
I00
S"'f\xeaI(\x1e\x84A"
p557
tp558
bsg48
F3.01925843577677
sg49
F0.050000000000000003
sg50
g8
(g9
(I0
tp559
g11
tp560
Rp561
(I1
(I1
I1
tp562
g18
I00
S'\x00\x00\x00\xe0MbP?'
p563
tp564
bsg57
g26
(g18
S'\xa9\x9d\xdb~_\x10\xb5?'
p565
tp566
Rp567
sbag1
(g2
g3
Ntp568
Rp569
(dp570
g7
g8
(g9
(I0
tp571
g11
tp572
Rp573
(I1
(I1
I1
tp574
g18
I00
S'\x86"\xf5\x8f\xd7\x18J?'
p575
tp576
bsg23
F17.912681415696639
sg24
F17.186276181518689
sg25
g34
sg35
I0
sg36
I01
sg37
F18.50107352832477
sg38
I23
sg39
g40
sg41
g8
(g9
(I0
tp577
g11
tp578
Rp579
(I1
(I1
I1
tp580
g18
I00
S'\xa8\xf6\x9a\xec\xaf\xc0{A'
p581
tp582
bsg48
F1.176784225256263
sg49
F0.050000000000000003
sg50
g8
(g9
(I0
tp583
g11
tp584
Rp585
(I1
(I1
I1
tp586
g18
I00
S'\x00\x00\x00\xe0MbP?'
p587
tp588
bsg57
g26
(g18
S'N\xad6R\xf1\xca\xd1?'
p589
tp590
Rp591
sbag1
(g2
g3
Ntp592
Rp593
(dp594
g7
g8
(g9
(I0
tp595
g11
tp596
Rp597
(I1
(I1
I1
tp598
g18
I00
S'2\xaa\xecr\x98\xe8Q?'
p599
tp600
bsg23
F29.281081370004255
sg24
F17.056075543560528
sg25
g34
sg35
I0
sg36
I01
sg37
F29.391425161364825
sg38
I24
sg39
g40
sg41
g8
(g9
(I0
tp601
g11
tp602
Rp603
(I1
(I1
I1
tp604
g18
I00
S'q{"\x80W]xA'
p605
tp606
bsg48
F0.22068758272114053
sg49
F0.050000000000000003
sg50
g8
(g9
(I0
tp607
g11
tp608
Rp609
(I1
(I1
I1
tp610
g18
I00
S'\x00\x00\x00\xe0MbP?'
p611
tp612
bsg57
g26
(g18
S'\x14\xf4\xf4.\xban\xe4?'
p613
tp614
Rp615
sbag1
(g2
g3
Ntp616
Rp617
(dp618
g7
g8
(g9
(I0
tp619
g11
tp620
Rp621
(I1
(I1
I1
tp622
g18
I00
S'\xfd\x1cv8\x1f \x85?'
p623
tp624
bsg23
F12.67505238055986
sg24
F9.6878126573273153
sg25
g312
sg35
I0
sg36
I01
sg37
F16.569831391630501
sg38
I25
sg39
g40
sg41
g8
(g9
(I0
tp625
g11
tp626
Rp627
(I1
(I1
I1
tp628
g18
I00
S'\xb52\xda\x11\xf9{\xcf@'
p629
tp630
bsg48
F7.7895580221412821
sg49
F0.050000000000000003
sg50
g8
(g9
(I0
tp631
g11
tp632
Rp633
(I1
(I1
I1
tp634
g18
I00
S'\x00\x00\x00\xe0MbP?'
p635
tp636
bsg57
g26
(g18
S'\xfb3\x11\xcb*\x86u?'
p637
tp638
Rp639
sbag1
(g2
g3
Ntp640
Rp641
(dp642
g7
g8
(g9
(I0
tp643
g11
tp644
Rp645
(I1
(I1
I1
tp646
g18
I00
S' \x89)}\xf5_O?'
p647
tp648
bsg23
F17.786222673778951
sg24
F17.220993797655403
sg25
g34
sg35
I0
sg36
I01
sg37
F17.813774698233352
sg38
I26
sg39
g40
sg41
g8
(g9
(I0
tp649
g11
tp650
Rp651
(I1
(I1
I1
tp652
g18
I00
S'\xc3\x1d\x9e:\xad\xbb|A'
p653
tp654
bsg48
F0.055104048908802383
sg49
F0.050000000000000003
sg50
g8
(g9
(I0
tp655
g11
tp656
Rp657
(I1
(I1
I1
tp658
g18
I00
S'\x00\x00\x00\xe0MbP?'
p659
tp660
bsg57
g26
(g18
S'r\xb5\x8b\x98\xa2\x0f\xea?'
p661
tp662
Rp663
sbag1
(g2
g3
Ntp664
Rp665
(dp666
g7
g8
(g9
(I0
tp667
g11
tp668
Rp669
(I1
(I1
I1
tp670
g18
I00
S'b\x88\x89K]\x14M?'
p671
tp672
bsg23
F16.816102932613656
sg24
F17.657248694773401
sg25
g34
sg35
I0
sg36
I01
sg37
F17.110412606595126
sg38
I27
sg39
g40
sg41
g8
(g9
(I0
tp673
g11
tp674
Rp675
(I1
(I1
I1
tp676
g18
I00
S'h\xa12cB9\x86A'
p677
tp678
bsg48
F0.5886193479629398
sg49
F0.050000000000000003
sg50
g8
(g9
(I0
tp679
g11
tp680
Rp681
(I1
(I1
I1
tp682
g18
I00
S'\x00\x00\x00\xe0MbP?'
p683
tp684
bsg57
g26
(g18
S'*\xa7\xe1\xa8YY\xdc?'
p685
tp686
Rp687
sbag1
(g2
g3
Ntp688
Rp689
(dp690
g7
g8
(g9
(I0
tp691
g11
tp692
Rp693
(I1
(I1
I1
tp694
g18
I00
S'\x906P\x01:\xbbK?'
p695
tp696
bsg23
F12.589371410668175
sg24
F17.879656334724338
sg25
g34
sg35
I0
sg36
I01
sg37
F13.267598528600177
sg38
I28
sg39
g40
sg41
g8
(g9
(I0
tp697
g11
tp698
Rp699
(I1
(I1
I1
tp700
g18
I00
S'\xcc\x95H\xb4W\xc2\x8bA'
p701
tp702
bsg48
F1.3564542358640033
sg49
F0.050000000000000003
sg50
g8
(g9
(I0
tp703
g11
tp704
Rp705
(I1
(I1
I1
tp706
g18
I00
S'\x00\x00\x00\xe0MbP?'
p707
tp708
bsg57
g26
(g18
S'D\xc0$Ng@\xcf?'
p709
tp710
Rp711
sbag1
(g2
g3
Ntp712
Rp713
(dp714
g7
g8
(g9
(I0
tp715
g11
tp716
Rp717
(I1
(I1
I1
tp718
g18
I00
S'i\x10\xff0\xd7\x01I?'
p719
tp720
bsg23
F17.424511433323111
sg24
F15.949608775328356
sg25
g34
sg35
I0
sg36
I01
sg37
F17.654241894324358
sg38
I29
sg39
g40
sg41
g8
(g9
(I0
tp721
g11
tp722
Rp723
(I1
(I1
I1
tp724
g18
I00
S'\x1f\xbb\xdb\xf0\xb1\x1d`A'
p725
tp726
bsg48
F0.45946092200249211
sg49
F0.050000000000000003
sg50
g8
(g9
(I0
tp727
g11
tp728
Rp729
(I1
(I1
I1
tp730
g18
I00
S'\x00\x00\x00\xe0MbP?'
p731
tp732
bsg57
g26
(g18
S'N\xa3\x9ba3\xdd\xdf?'
p733
tp734
Rp735
sbag1
(g2
g3
Ntp736
Rp737
(dp738
g7
g8
(g9
(I0
tp739
g11
tp740
Rp741
(I1
(I1
I1
tp742
g18
I00
S')\x1aS\xb5\xc2\xd8N?'
p743
tp744
bsg23
F22.992304784817669
sg24
F18.382370234016239
sg25
g34
sg35
I0
sg36
I01
sg37
F23.156214395243452
sg38
I30
sg39
g40
sg41
g8
(g9
(I0
tp745
g11
tp746
Rp747
(I1
(I1
I1
tp748
g18
I00
S'33%\xf6\x1b\xf2\x96A'
p749
tp750
bsg48
F0.32781922085156623
sg49
F0.050000000000000003
sg50
g8
(g9
(I0
tp751
g11
tp752
Rp753
(I1
(I1
I1
tp754
g18
I00
S'\x00\x00\x00\xe0MbP?'
p755
tp756
bsg57
g26
(g18
S'\xca~\xad\x05l$\xe2?'
p757
tp758
Rp759
sbag1
(g2
g3
Ntp760
Rp761
(dp762
g7
g8
(g9
(I0
tp763
g11
tp764
Rp765
(I1
(I1
I1
tp766
g18
I00
S'ZX\xd7tD\xf2W?'
p767
tp768
bsg23
F18.045661948346989
sg24
F16.040093773902154
sg25
g34
sg35
I0
sg36
I01
sg37
F19.104791074792846
sg38
I31
sg39
g40
sg41
g8
(g9
(I0
tp769
g11
tp770
Rp771
(I1
(I1
I1
tp772
g18
I00
S'\x04>\xe8\\k\xa4aA'
p773
tp774
bsg48
F2.1182582528917138
sg49
F0.050000000000000003
sg50
g8
(g9
(I0
tp775
g11
tp776
Rp777
(I1
(I1
I1
tp778
g18
I00
S'\x00\x00\x00\xe0MbP?'
p779
tp780
bsg57
g26
(g18
S'Nlp\x94r\xa1\xc2?'
p781
tp782
Rp783
sbag1
(g2
g3
Ntp784
Rp785
(dp786
g7
g8
(g9
(I0
tp787
g11
tp788
Rp789
(I1
(I1
I1
tp790
g18
I00
S'\x8f\x84\xc8\x97u\x9cQ?'
p791
tp792
bsg23
F17.368910224084612
sg24
F18.003821213710214
sg25
g34
sg35
I0
sg36
I01
sg37
F17.552798319906813
sg38
I32
sg39
g40
sg41
g8
(g9
(I0
tp793
g11
tp794
Rp795
(I1
(I1
I1
tp796
g18
I00
S'\xf2\n*\xaf\xd1m\x8fA'
p797
tp798
bsg48
F0.36777619164440267
sg49
F0.050000000000000003
sg50
g8
(g9
(I0
tp799
g11
tp800
Rp801
(I1
(I1
I1
tp802
g18
I00
S'\x00\x00\x00\xe0MbP?'
p803
tp804
bsg57
g26
(g18
S'T\xb7\xbf\xd4=j\xe1?'
p805
tp806
Rp807
sbag1
(g2
g3
Ntp808
Rp809
(dp810
g7
g8
(g9
(I0
tp811
g11
tp812
Rp813
(I1
(I1
I1
tp814
g18
I00
S'-\xbe\xdct\xa7\xd3G?'
p815
tp816
bsg23
F14.950294560194303
sg24
F17.529974048700371
sg25
g34
sg35
I0
sg36
I01
sg37
F16.420474809731754
sg38
I33
sg39
g40
sg41
g8
(g9
(I0
tp817
g11
tp818
Rp819
(I1
(I1
I1
tp820
g18
I00
S'Y\x0cq\xa5X\x91\x83A'
p821
tp822
bsg48
F2.9403604990749024
sg49
F0.050000000000000003
sg50
g8
(g9
(I0
tp823
g11
tp824
Rp825
(I1
(I1
I1
tp826
g18
I00
S'\x00\x00\x00\xe0MbP?'
p827
tp828
bsg57
g26
(g18
S'5\x92,\x04\xc0\x1d\xb6?'
p829
tp830
Rp831
sbag1
(g2
g3
Ntp832
Rp833
(dp834
g7
g8
(g9
(I0
tp835
g11
tp836
Rp837
(I1
(I1
I1
tp838
g18
I00
S'\xadm\x86\xd6\xf48T?'
p839
tp840
bsg23
F17.335388416488275
sg24
F17.088587031280163
sg25
g34
sg35
I0
sg36
I01
sg37
F18.082467789473384
sg38
I34
sg39
g40
sg41
g8
(g9
(I0
tp841
g11
tp842
Rp843
(I1
(I1
I1
tp844
g18
I00
S'\xcbm\xe6\xa1u+yA'
p845
tp846
bsg48
F1.4941587459702177
sg49
F0.050000000000000003
sg50
g8
(g9
(I0
tp847
g11
tp848
Rp849
(I1
(I1
I1
tp850
g18
I00
S'\x00\x00\x00\xe0MbP?'
p851
tp852
bsg57
g26
(g18
S'\xf8\xe2\xbdc{\\\xcc?'
p853
tp854
Rp855
sbag1
(g2
g3
Ntp856
Rp857
(dp858
g7
g8
(g9
(I0
tp859
g11
tp860
Rp861
(I1
(I1
I1
tp862
g18
I00
S'\xab\xdb\x1f\xd3\xc6\x8fL?'
p863
tp864
bsg23
F12.949844808942553
sg24
F18.138435777334411
sg25
g34
sg35
I0
sg36
I01
sg37
F13.566458031332086
sg38
I35
sg39
g40
sg41
g8
(g9
(I0
tp865
g11
tp866
Rp867
(I1
(I1
I1
tp868
g18
I00
S'.\x9d\x1d\xf6\x97\xfa\x91A'
p869
tp870
bsg48
F1.2332264447790671
sg49
F0.050000000000000003
sg50
g8
(g9
(I0
tp871
g11
tp872
Rp873
(I1
(I1
I1
tp874
g18
I00
S'\x00\x00\x00\xe0MbP?'
p875
tp876
bsg57
g26
(g18
S'\xea\x1a\x8fw\xee\x12\xd1?'
p877
tp878
Rp879
sbag1
(g2
g3
Ntp880
Rp881
(dp882
g7
g8
(g9
(I0
tp883
g11
tp884
Rp885
(I1
(I1
I1
tp886
g18
I00
S'q\xa7\xbe=\xb4cZ?'
p887
tp888
bsg23
F23.014588806288845
sg24
F15.424893112236154
sg25
g34
sg35
I0
sg36
I01
sg37
F24.042390235506733
sg38
I36
sg39
g40
sg41
g8
(g9
(I0
tp889
g11
tp890
Rp891
(I1
(I1
I1
tp892
g18
I00
S'\x1f\xdf\xe0\xcd\x8a\x12SA'
p893
tp894
bsg48
F2.0556028584357762
sg49
F0.050000000000000003
sg50
g8
(g9
(I0
tp895
g11
tp896
Rp897
(I1
(I1
I1
tp898
g18
I00
S'\x00\x00\x00\xe0MbP?'
p899
tp900
bsg57
g26
(g18
S':\x99e\x1a-i\xc3?'
p901
tp902
Rp903
sbag1
(g2
g3
Ntp904
Rp905
(dp906
g7
g8
(g9
(I0
tp907
g11
tp908
Rp909
(I1
(I1
I1
tp910
g18
I00
S'\x14R\xd2.A$T?'
p911
tp912
bsg23
F15.411748828226342
sg24
F17.708711913752818
sg25
g34
sg35
I0
sg36
I01
sg37
F16.741495040184688
sg38
I37
sg39
g40
sg41
g8
(g9
(I0
tp913
g11
tp914
Rp915
(I1
(I1
I1
tp916
g18
I00
S'\xae\xde\x9d4\xb6e\x87A'
p917
tp918
bsg48
F2.6594924239166922
sg49
F0.050000000000000003
sg50
g8
(g9
(I0
tp919
g11
tp920
Rp921
(I1
(I1
I1
tp922
g18
I00
S'\x00\x00\x00\xe0MbP?'
p923
tp924
bsg57
g26
(g18
S'{Qf\xda\xdaY\xba?'
p925
tp926
Rp927
sbag1
(g2
g3
Ntp928
Rp929
(dp930
g7
g8
(g9
(I0
tp931
g11
tp932
Rp933
(I1
(I1
I1
tp934
g18
I00
S'd\x0c\xc4\x10\xa2\x08Q?'
p935
tp936
bsg23
F16.937042213159401
sg24
F14.675304389247477
sg25
g34
sg35
I0
sg36
I01
sg37
F16.938868301930622
sg38
I38
sg39
g40
sg41
g8
(g9
(I0
tp937
g11
tp938
Rp939
(I1
(I1
I1
tp940
g18
I00
S'\x9f\xfc]\xc4\x98\x06BA'
p941
tp942
bsg48
F0.0036521775424418479
sg49
F0.050000000000000003
sg50
g8
(g9
(I0
tp943
g11
tp944
Rp945
(I1
(I1
I1
tp946
g18
I00
S'\x00\x00\x00\xe0MbP?'
p947
tp948
bsg57
g26
(g18
S'\xc1TMu;u\xee?'
p949
tp950
Rp951
sbag1
(g2
g3
Ntp952
Rp953
(dp954
g7
g8
(g9
(I0
tp955
g11
tp956
Rp957
(I1
(I1
I1
tp958
g18
I00
S'\x10"\xd4w\x97\x83N?'
p959
tp960
bsg23
F15.282239137611828
sg24
F14.401084496472176
sg25
g34
sg35
I0
sg36
I01
sg37
F15.28640329446147
sg38
I39
sg39
g40
sg41
g8
(g9
(I0
tp961
g11
tp962
Rp963
(I1
(I1
I1
tp964
g18
I00
S'\xe4\xb8\xeb~\xb5g;A'
p965
tp966
bsg48
F0.0083283136992839957
sg49
F0.050000000000000003
sg50
g8
(g9
(I0
tp967
g11
tp968
Rp969
(I1
(I1
I1
tp970
g18
I00
S'\x00\x00\x00\xe0MbP?'
p971
tp972
bsg57
g26
(g18
S'!\t\x98]T\xac\xed?'
p973
tp974
Rp975
sbag1
(g2
g3
Ntp976
Rp977
(dp978
g7
g8
(g9
(I0
tp979
g11
tp980
Rp981
(I1
(I1
I1
tp982
g18
I00
S'yl\x08XB\xc8E?'
p983
tp984
bsg23
F17.386343845173318
sg24
F16.690006246326789
sg25
g34
sg35
I0
sg36
I01
sg37
F18.333159894665389
sg38
I40
sg39
g40
sg41
g8
(g9
(I0
tp985
g11
tp986
Rp987
(I1
(I1
I1
tp988
g18
I00
S'\x1d\xb2\xccsP\xe5pA'
p989
tp990
bsg48
F1.893632098984142
sg49
F0.050000000000000003
sg50
g8
(g9
(I0
tp991
g11
tp992
Rp993
(I1
(I1
I1
tp994
g18
I00
S'\x00\x00\x00\xe0MbP?'
p995
tp996
bsg57
g26
(g18
S'8\xb9\xcd\xd7\x00\x9b\xc5?'
p997
tp998
Rp999
sbag1
(g2
g3
Ntp1000
Rp1001
(dp1002
g7
g8
(g9
(I0
tp1003
g11
tp1004
Rp1005
(I1
(I1
I1
tp1006
g18
I00
S'\xbc\x0e \xb0\xeb\x04M?'
p1007
tp1008
bsg23
F20.361943036890136
sg24
F18.12784537804081
sg25
g34
sg35
I0
sg36
I01
sg37
F20.84839689339454
sg38
I41
sg39
g40
sg41
g8
(g9
(I0
tp1009
g11
tp1010
Rp1011
(I1
(I1
I1
tp1012
g18
I00
S'\xac\xde\x97\x84\x1b\xca\x91A'
p1013
tp1014
bsg48
F0.97290771300880863
sg49
F0.050000000000000003
sg50
g8
(g9
(I0
tp1015
g11
tp1016
Rp1017
(I1
(I1
I1
tp1018
g18
I00
S'\x00\x00\x00\xe0MbP?'
p1019
tp1020
bsg57
g26
(g18
S'\x02Eu@\xb2\xbb\xd4?'
p1021
tp1022
Rp1023
sbag1
(g2
g3
Ntp1024
Rp1025
(dp1026
g7
g8
(g9
(I0
tp1027
g11
tp1028
Rp1029
(I1
(I1
I1
tp1030
g18
I00
S'j\xfa4\xe8\xb9;J?'
p1031
tp1032
bsg23
F21.38286133808753
sg24
F17.557477520878969
sg25
g34
sg35
I0
sg36
I01
sg37
F22.201879181228978
sg38
I42
sg39
g40
sg41
g8
(g9
(I0
tp1033
g11
tp1034
Rp1035
(I1
(I1
I1
tp1036
g18
I00
S'\x9c\xd1\xbaf\x08\x1d\x84A'
p1037
tp1038
bsg48
F1.6380356862828975
sg49
F0.050000000000000003
sg50
g8
(g9
(I0
tp1039
g11
tp1040
Rp1041
(I1
(I1
I1
tp1042
g18
I00
S'\x00\x00\x00\xe0MbP?'
p1043
tp1044
bsg57
g26
(g18
S'0\xf6\xc0p\x1a\xad\xc9?'
p1045
tp1046
Rp1047
sbag1
(g2
g3
Ntp1048
Rp1049
(dp1050
g7
g8
(g9
(I0
tp1051
g11
tp1052
Rp1053
(I1
(I1
I1
tp1054
g18
I00
S'8%FV\xf9:P?'
p1055
tp1056
bsg23
F26.801690970635473
sg24
F17.475761525984705
sg25
g34
sg35
I0
sg36
I01
sg37
F26.803694478722427
sg38
I43
sg39
g40
sg41
g8
(g9
(I0
tp1057
g11
tp1058
Rp1059
(I1
(I1
I1
tp1060
g18
I00
S'\x08\x83e\xc8\x01\x89\x82A'
p1061
tp1062
bsg48
F0.0040070161739080845
sg49
F0.050000000000000003
sg50
g8
(g9
(I0
tp1063
g11
tp1064
Rp1065
(I1
(I1
I1
tp1066
g18
I00
S'\x00\x00\x00\xe0MbP?'
p1067
tp1068
bsg57
g26
(g18
S'\x01\xc6\xfb\x12\x86b\xee?'
p1069
tp1070
Rp1071
sbag1
(g2
g3
Ntp1072
Rp1073
(dp1074
g7
g8
(g9
(I0
tp1075
g11
tp1076
Rp1077
(I1
(I1
I1
tp1078
g18
I00
S'\xd9\x1c\xd3\xf1\xf6\x17S?'
p1079
tp1080
bsg23
F15.978058116693253
sg24
F15.908580571599346
sg25
g34
sg35
I0
sg36
I01
sg37
F16.092170048594539
sg38
I44
sg39
g40
sg41
g8
(g9
(I0
tp1081
g11
tp1082
Rp1083
(I1
(I1
I1
tp1084
g18
I00
S'\xdd\x0e\x9b\x86\xb3\xef^A'
p1085
tp1086
bsg48
F0.22822386380257242
sg49
F0.050000000000000003
sg50
g8
(g9
(I0
tp1087
g11
tp1088
Rp1089
(I1
(I1
I1
tp1090
g18
I00
S'\x00\x00\x00\xe0MbP?'
p1091
tp1092
bsg57
g26
(g18
S'8\xb7$\xf2A@\xe4?'
p1093
tp1094
Rp1095
sbag1
(g2
g3
Ntp1096
Rp1097
(dp1098
g7
g8
(g9
(I0
tp1099
g11
tp1100
Rp1101
(I1
(I1
I1
tp1102
g18
I00
S'\xe1\xc2\xa3t\rqM?'
p1103
tp1104
bsg23
F22.190303963423489
sg24
F18.087598202986356
sg25
g34
sg35
I0
sg36
I01
sg37
F22.553872625207859
sg38
I45
sg39
g40
sg41
g8
(g9
(I0
tp1105
g11
tp1106
Rp1107
(I1
(I1
I1
tp1108
g18
I00
S'\xe2+z\xfdt\x16\x91A'
p1109
tp1110
bsg48
F0.72713732356874061
sg49
F0.050000000000000003
sg50
g8
(g9
(I0
tp1111
g11
tp1112
Rp1113
(I1
(I1
I1
tp1114
g18
I00
S'\x00\x00\x00\xe0MbP?'
p1115
tp1116
bsg57
g26
(g18
S'4\x1c\x9c\x0e:4\xd9?'
p1117
tp1118
Rp1119
sbag1
(g2
g3
Ntp1120
Rp1121
(dp1122
g7
g8
(g9
(I0
tp1123
g11
tp1124
Rp1125
(I1
(I1
I1
tp1126
g18
I00
S'\xee \xef\x14\x9a_Y?'
p1127
tp1128
bsg23
F17.503914613728909
sg24
F16.085875907797583
sg25
g34
sg35
I0
sg36
I01
sg37
F19.09480934705169
sg38
I46
sg39
g40
sg41
g8
(g9
(I0
tp1129
g11
tp1130
Rp1131
(I1
(I1
I1
tp1132
g18
I00
S'4\xf4{:\xffwbA'
p1133
tp1134
bsg48
F3.1817894666455615
sg49
F0.050000000000000003
sg50
g8
(g9
(I0
tp1135
g11
tp1136
Rp1137
(I1
(I1
I1
tp1138
g18
I00
S'\x00\x00\x00\xe0MbP?'
p1139
tp1140
bsg57
g26
(g18
S'\xbd\x93\x96.\x04\x10\xb3?'
p1141
tp1142
Rp1143
sbag1
(g2
g3
Ntp1144
Rp1145
(dp1146
g7
g8
(g9
(I0
tp1147
g11
tp1148
Rp1149
(I1
(I1
I1
tp1150
g18
I00
S'\xe5\x1c\xf4\xbf\xd5\xebQ?'
p1151
tp1152
bsg23
F14.579041327675647
sg24
F18.261966665758919
sg25
g34
sg35
I0
sg36
I01
sg37
F14.953786158988748
sg38
I47
sg39
g40
sg41
g8
(g9
(I0
tp1153
g11
tp1154
Rp1155
(I1
(I1
I1
tp1156
g18
I00
S',\xc1\xa3\xf1\xc3W\x94A'
p1157
tp1158
bsg48
F0.74948966262620331
sg49
F0.050000000000000003
sg50
g8
(g9
(I0
tp1159
g11
tp1160
Rp1161
(I1
(I1
I1
tp1162
g18
I00
S'\x00\x00\x00\xe0MbP?'
p1163
tp1164
bsg57
g26
(g18
S'\xa6IX\xb3\xac\xbe\xd8?'
p1165
tp1166
Rp1167
sbag1
(g2
g3
Ntp1168
Rp1169
(dp1170
g7
g8
(g9
(I0
tp1171
g11
tp1172
Rp1173
(I1
(I1
I1
tp1174
g18
I00
S'K\x9d\xf6\x93\x9d\x95Q?'
p1175
tp1176
bsg23
F16.329505724188927
sg24
F18.393722595921375
sg25
g34
sg35
I0
sg36
I01
sg37
F16.589357860257969
sg38
I48
sg39
g40
sg41
g8
(g9
(I0
tp1177
g11
tp1178
Rp1179
(I1
(I1
I1
tp1180
g18
I00
S'\x07\xd7\xc8\x97,5\x97A'
p1181
tp1182
bsg48
F0.51970427213808534
sg49
F0.050000000000000003
sg50
g8
(g9
(I0
tp1183
g11
tp1184
Rp1185
(I1
(I1
I1
tp1186
g18
I00
S'\x00\x00\x00\xe0MbP?'
p1187
tp1188
bsg57
g26
(g18
S'\x8c!A_V$\xde?'
p1189
tp1190
Rp1191
sbag1
(g2
g3
Ntp1192
Rp1193
(dp1194
g7
g8
(g9
(I0
tp1195
g11
tp1196
Rp1197
(I1
(I1
I1
tp1198
g18
I00
S'kv{\xaa\xb3\xc0W?'
p1199
tp1200
bsg23
F29.490814634030006
sg24
F16.818073150607123
sg25
g312
sg35
I0
sg36
I01
sg37
F31.674791866663934
sg38
I49
sg39
g40
sg41
g8
(g9
(I0
tp1201
g11
tp1202
Rp1203
(I1
(I1
I1
tp1204
g18
I00
S'\x1dh\xa7\x1fG4sA'
p1205
tp1206
bsg48
F4.3679544652678572
sg49
F0.050000000000000003
sg50
g8
(g9
(I0
tp1207
g11
tp1208
Rp1209
(I1
(I1
I1
tp1210
g18
I00
S'\x00\x00\x00\xe0MbP?'
p1211
tp1212
bsg57
g26
(g18
S'\x12{Uk\xfa\xbf\xa2?'
p1213
tp1214
Rp1215
sbag1
(g2
g3
Ntp1216
Rp1217
(dp1218
g7
g8
(g9
(I0
tp1219
g11
tp1220
Rp1221
(I1
(I1
I1
tp1222
g18
I00
S'\xb7\xd3<\xa8\xfd\x90<?'
p1223
tp1224
bsg23
F16.3781721287076
sg24
F15.654566387228334
sg25
g34
sg35
I0
sg36
I01
sg37
F17.289131523864057
sg38
I50
sg39
g40
sg41
g8
(g9
(I0
tp1225
g11
tp1226
Rp1227
(I1
(I1
I1
tp1228
g18
I00
S'\xcdY\xcf\x03)\xffWA'
p1229
tp1230
bsg48
F1.8219187903129139
sg49
F0.050000000000000003
sg50
g8
(g9
(I0
tp1231
g11
tp1232
Rp1233
(I1
(I1
I1
tp1234
g18
I00
S'\x00\x00\x00\xe0MbP?'
p1235
tp1236
bsg57
g26
(g18
S'<E\xf0\x0b\xb9\xaa\xc6?'
p1237
tp1238
Rp1239
sbag1
(g2
g3
Ntp1240
Rp1241
(dp1242
g7
g8
(g9
(I0
tp1243
g11
tp1244
Rp1245
(I1
(I1
I1
tp1246
g18
I00
S'%\x9c\xa8\xd0\xb8jQ?'
p1247
tp1248
bsg23
F23.41838524312481
sg24
F19.223153349261999
sg25
g34
sg35
I0
sg36
I01
sg37
F23.859655523401297
sg38
I51
sg39
g40
sg41
g8
(g9
(I0
tp1249
g11
tp1250
Rp1251
(I1
(I1
I1
tp1252
g18
I00
S'I~TL\xa0\x98\xaaA'
p1253
tp1254
bsg48
F0.88254056055297525
sg49
F0.050000000000000003
sg50
g8
(g9
(I0
tp1255
g11
tp1256
Rp1257
(I1
(I1
I1
tp1258
g18
I00
S'\x00\x00\x00\xe0MbP?'
p1259
tp1260
bsg57
g26
(g18
S'\xaa\x7fg\x17\x8d=\xd6?'
p1261
tp1262
Rp1263
sbag1
(g2
g3
Ntp1264
Rp1265
(dp1266
g7
g8
(g9
(I0
tp1267
g11
tp1268
Rp1269
(I1
(I1
I1
tp1270
g18
I00
S'\xe3^N\xe8\xa6\x91M?'
p1271
tp1272
bsg23
F22.434536340690602
sg24
F18.86679758996894
sg25
g34
sg35
I0
sg36
I01
sg37
F23.14553878276184
sg38
I52
sg39
g40
sg41
g8
(g9
(I0
tp1273
g11
tp1274
Rp1275
(I1
(I1
I1
tp1276
g18
I00
S'\xa5zVO\x8f\x9f\xa2A'
p1277
tp1278
bsg48
F1.4220048841424742
sg49
F0.050000000000000003
sg50
g8
(g9
(I0
tp1279
g11
tp1280
Rp1281
(I1
(I1
I1
tp1282
g18
I00
S'\x00\x00\x00\xe0MbP?'
p1283
tp1284
bsg57
g26
(g18
S'\xb00\x8f\xd3[\xd5\xcd?'
p1285
tp1286
Rp1287
sbag1
(g2
g3
Ntp1288
Rp1289
(dp1290
g7
g8
(g9
(I0
tp1291
g11
tp1292
Rp1293
(I1
(I1
I1
tp1294
g18
I00
S'`\xb9\x9b}\xad\xb1F?'
p1295
tp1296
bsg23
F19.300410401631886
sg24
F17.304598535966708
sg25
g34
sg35
I0
sg36
I01
sg37
F20.780234271062238
sg38
I53
sg39
g40
sg41
g8
(g9
(I0
tp1297
g11
tp1298
Rp1299
(I1
(I1
I1
tp1300
g18
I00
S'<\xceO\xbd\x15=\x7fA'
p1301
tp1302
bsg48
F2.9596477388607028
sg49
F0.050000000000000003
sg50
g8
(g9
(I0
tp1303
g11
tp1304
Rp1305
(I1
(I1
I1
tp1306
g18
I00
S'\x00\x00\x00\xe0MbP?'
p1307
tp1308
bsg57
g26
(g18
S'<\xd3\x8b\xd4\x94\xda\xb5?'
p1309
tp1310
Rp1311
sbag1
(g2
g3
Ntp1312
Rp1313
(dp1314
g7
g8
(g9
(I0
tp1315
g11
tp1316
Rp1317
(I1
(I1
I1
tp1318
g18
I00
S'5\xf6*\xdao\xccR?'
p1319
tp1320
bsg23
F20.640735599106485
sg24
F15.228784539530187
sg25
g34
sg35
I0
sg36
I01
sg37
F20.686230475207779
sg38
I54
sg39
g40
sg41
g8
(g9
(I0
tp1321
g11
tp1322
Rp1323
(I1
(I1
I1
tp1324
g18
I00
S'IO:\xbb%ZOA'
p1325
tp1326
bsg48
F0.090989752202588647
sg49
F0.050000000000000003
sg50
g8
(g9
(I0
tp1327
g11
tp1328
Rp1329
(I1
(I1
I1
tp1330
g18
I00
S'\x00\x00\x00\xe0MbP?'
p1331
tp1332
bsg57
g26
(g18
S'lHQ\xbe\xdci\xe8?'
p1333
tp1334
Rp1335
sbag1
(g2
g3
Ntp1336
Rp1337
(dp1338
g7
g8
(g9
(I0
tp1339
g11
tp1340
Rp1341
(I1
(I1
I1
tp1342
g18
I00
S'>\x93\xdd\x8e\xbfbQ?'
p1343
tp1344
bsg23
F22.637011986210638
sg24
F18.32704704277403
sg25
g34
sg35
I0
sg36
I01
sg37
F22.806492225551864
sg38
I55
sg39
g40
sg41
g8
(g9
(I0
tp1345
g11
tp1346
Rp1347
(I1
(I1
I1
tp1348
g18
I00
S'6)\x87\xe7\xf5\xb5\x95A'
p1349
tp1350
bsg48
F0.33896047868245205
sg49
F0.050000000000000003
sg50
g8
(g9
(I0
tp1351
g11
tp1352
Rp1353
(I1
(I1
I1
tp1354
g18
I00
S'\x00\x00\x00\xe0MbP?'
p1355
tp1356
bsg57
g26
(g18
S'f*\xbd\x9e\n\xef\xe1?'
p1357
tp1358
Rp1359
sbag1
(g2
g3
Ntp1360
Rp1361
(dp1362
g7
g8
(g9
(I0
tp1363
g11
tp1364
Rp1365
(I1
(I1
I1
tp1366
g18
I00
S'l\x16q\xa7\xa9}R?'
p1367
tp1368
bsg23
F17.003151995251027
sg24
F18.47839437828965
sg25
g34
sg35
I0
sg36
I01
sg37
F17.888417494603594
sg38
I56
sg39
g40
sg41
g8
(g9
(I0
tp1369
g11
tp1370
Rp1371
(I1
(I1
I1
tp1372
g18
I00
S'w\xa1D\x95"B\x99A'
p1373
tp1374
bsg48
F1.7705309987051336
sg49
F0.050000000000000003
sg50
g8
(g9
(I0
tp1375
g11
tp1376
Rp1377
(I1
(I1
I1
tp1378
g18
I00
S'\x00\x00\x00\xe0MbP?'
p1379
tp1380
bsg57
g26
(g18
S'$\xef\xeb:\xe9v\xc7?'
p1381
tp1382
Rp1383
sbag1
(g2
g3
Ntp1384
Rp1385
(dp1386
g7
g8
(g9
(I0
tp1387
g11
tp1388
Rp1389
(I1
(I1
I1
tp1390
g18
I00
S'e\xcd\x1a\xd1\xd4\xc8M?'
p1391
tp1392
bsg23
F17.989584384868447
sg24
F16.602113139061309
sg25
g34
sg35
I0
sg36
I01
sg37
F18.054178719573279
sg38
I57
sg39
g40
sg41
g8
(g9
(I0
tp1393
g11
tp1394
Rp1395
(I1
(I1
I1
tp1396
g18
I00
S'\xaf\xda\xcc\x06\xc1\xf2nA'
p1397
tp1398
bsg48
F0.12918866940966467
sg49
F0.050000000000000003
sg50
g8
(g9
(I0
tp1399
g11
tp1400
Rp1401
(I1
(I1
I1
tp1402
g18
I00
S'\x00\x00\x00\xe0MbP?'
p1403
tp1404
bsg57
g26
(g18
S'\x07\x8f\x8fvL\x04\xe7?'
p1405
tp1406
Rp1407
sbag1
(g2
g3
Ntp1408
Rp1409
(dp1410
g7
g8
(g9
(I0
tp1411
g11
tp1412
Rp1413
(I1
(I1
I1
tp1414
g18
I00
S'\xa6\x85=\x86tqT?'
p1415
tp1416
bsg23
F14.3846858032718
sg24
F17.002555119391641
sg25
g34
sg35
I0
sg36
I01
sg37
F15.15326529689926
sg38
I58
sg39
g40
sg41
g8
(g9
(I0
tp1417
g11
tp1418
Rp1419
(I1
(I1
I1
tp1420
g18
I00
S'\xe5\x96U\xe7J\x18wA'
p1421
tp1422
bsg48
F1.5371589872549194
sg49
F0.050000000000000003
sg50
g8
(g9
(I0
tp1423
g11
tp1424
Rp1425
(I1
(I1
I1
tp1426
g18
I00
S'\x00\x00\x00\xe0MbP?'
p1427
tp1428
bsg57
g26
(g18
S'8V\xd8)x\x86\xcb?'
p1429
tp1430
Rp1431
sbag1
(g2
g3
Ntp1432
Rp1433
(dp1434
g7
g8
(g9
(I0
tp1435
g11
tp1436
Rp1437
(I1
(I1
I1
tp1438
g18
I00
S'^kn\x18\x7f\xa7T?'
p1439
tp1440
bsg23
F26.847828974513227
sg24
F18.761952722722143
sg25
g312
sg35
I0
sg36
I01
sg37
F31.800753587968821
sg38
I59
sg39
g40
sg41
g8
(g9
(I0
tp1441
g11
tp1442
Rp1443
(I1
(I1
I1
tp1444
g18
I00
S'l\xac8V\x04\xc5\xa0A'
p1445
tp1446
bsg48
F9.9058492269111866
sg49
F0.050000000000000003
sg50
g8
(g9
(I0
tp1447
g11
tp1448
Rp1449
(I1
(I1
I1
tp1450
g18
I00
S'\x00\x00\x00\xe0MbP?'
p1451
tp1452
bsg57
g26
(g18
S'\x1d\xcaz\xabK\xfeZ?'
p1453
tp1454
Rp1455
sbag1
(g2
g3
Ntp1456
Rp1457
(dp1458
g7
g8
(g9
(I0
tp1459
g11
tp1460
Rp1461
(I1
(I1
I1
tp1462
g18
I00
S'|\xefQ\xd6\xc3\xf7U?'
p1463
tp1464
bsg23
F18.209817032967759
sg24
F17.044600809023116
sg25
g34
sg35
I0
sg36
I01
sg37
F19.75267737700559
sg38
I60
sg39
g40
sg41
g8
(g9
(I0
tp1465
g11
tp1466
Rp1467
(I1
(I1
I1
tp1468
g18
I00
S'.9\x9b\xd4-\x16xA'
p1469
tp1470
bsg48
F3.0857206880756607
sg49
F0.050000000000000003
sg50
g8
(g9
(I0
tp1471
g11
tp1472
Rp1473
(I1
(I1
I1
tp1474
g18
I00
S'\x00\x00\x00\xe0MbP?'
p1475
tp1476
bsg57
g26
(g18
S'\xd6\xa1\xe7\x93.8\xb4?'
p1477
tp1478
Rp1479
sbag1
(g2
g3
Ntp1480
Rp1481
(dp1482
g7
g8
(g9
(I0
tp1483
g11
tp1484
Rp1485
(I1
(I1
I1
tp1486
g18
I00
S'\xdc\x97\x1d\x8d\xed\xafO?'
p1487
tp1488
bsg23
F13.150977403768897
sg24
F18.035437837818431
sg25
g34
sg35
I0
sg36
I01
sg37
F13.189063650051102
sg38
I61
sg39
g40
sg41
g8
(g9
(I0
tp1489
g11
tp1490
Rp1491
(I1
(I1
I1
tp1492
g18
I00
S'\xfd\xf2A\xe4!8\x90A'
p1493
tp1494
bsg48
F0.076172492564410277
sg49
F0.050000000000000003
sg50
g8
(g9
(I0
tp1495
g11
tp1496
Rp1497
(I1
(I1
I1
tp1498
g18
I00
S'\x00\x00\x00\xe0MbP?'
p1499
tp1500
bsg57
g26
(g18
S'S\x84$z\xac\n\xe9?'
p1501
tp1502
Rp1503
sbag1
(g2
g3
Ntp1504
Rp1505
(dp1506
g7
g8
(g9
(I0
tp1507
g11
tp1508
Rp1509
(I1
(I1
I1
tp1510
g18
I00
S"\xac.'\x7f\xa9\x01T?"
p1511
tp1512
bsg23
F12.384295496007354
sg24
F17.178934090429969
sg25
g34
sg35
I0
sg36
I01
sg37
F13.11065547860569
sg38
I62
sg39
g40
sg41
g8
(g9
(I0
tp1513
g11
tp1514
Rp1515
(I1
(I1
I1
tp1516
g18
I00
S'\x92h;\x08\xb7\x8c{A'
p1517
tp1518
bsg48
F1.4527199651966711
sg49
F0.050000000000000003
sg50
g8
(g9
(I0
tp1519
g11
tp1520
Rp1521
(I1
(I1
I1
tp1522
g18
I00
S'\x00\x00\x00\xe0MbP?'
p1523
tp1524
bsg57
g26
(g18
S'8c+z\x1e2\xcd?'
p1525
tp1526
Rp1527
sbag1
(g2
g3
Ntp1528
Rp1529
(dp1530
g7
g8
(g9
(I0
tp1531
g11
tp1532
Rp1533
(I1
(I1
I1
tp1534
g18
I00
S'\xa2\xc1\x97LAxF?'
p1535
tp1536
bsg23
F25.241073851899891
sg24
F15.211956526047587
sg25
g34
sg35
I0
sg36
I01
sg37
F25.431592046147845
sg38
I63
sg39
g40
sg41
g8
(g9
(I0
tp1537
g11
tp1538
Rp1539
(I1
(I1
I1
tp1540
g18
I00
S'\xf0\xac`\x9e6\xd4NA'
p1541
tp1542
bsg48
F0.38103638849590737
sg49
F0.050000000000000003
sg50
g8
(g9
(I0
tp1543
g11
tp1544
Rp1545
(I1
(I1
I1
tp1546
g18
I00
S'\x00\x00\x00\xe0MbP?'
p1547
tp1548
bsg57
g26
(g18
S'\xf5}#\x98\x81/\xe1?'
p1549
tp1550
Rp1551
sbag1
(g2
g3
Ntp1552
Rp1553
(dp1554
g7
g8
(g9
(I0
tp1555
g11
tp1556
Rp1557
(I1
(I1
I1
tp1558
g18
I00
S'\x8bhr\xf4\x0f\x0fQ?'
p1559
tp1560
bsg23
F20.270071013693883
sg24
F18.516552688388458
sg25
g34
sg35
I0
sg36
I01
sg37
F20.362115274795965
sg38
I64
sg39
g40
sg41
g8
(g9
(I0
tp1561
g11
tp1562
Rp1563
(I1
(I1
I1
tp1564
g18
I00
S'}\xe3\xe0\xcd\xa3=\x9aA'
p1565
tp1566
bsg48
F0.1840885222041635
sg49
F0.050000000000000003
sg50
g8
(g9
(I0
tp1567
g11
tp1568
Rp1569
(I1
(I1
I1
tp1570
g18
I00
S'\x00\x00\x00\xe0MbP?'
p1571
tp1572
bsg57
g26
(g18
S'u=\x8a\x00L_\xe5?'
p1573
tp1574
Rp1575
sbag1
(g2
g3
Ntp1576
Rp1577
(dp1578
g7
g8
(g9
(I0
tp1579
g11
tp1580
Rp1581
(I1
(I1
I1
tp1582
g18
I00
S'\n\x8f\xc3TFL[?'
p1583
tp1584
bsg23
F21.871714107199107
sg24
F15.043009840172319
sg25
g34
sg35
I0
sg36
I01
sg37
F22.714484425857663
sg38
I65
sg39
g40
sg41
g8
(g9
(I0
tp1585
g11
tp1586
Rp1587
(I1
(I1
I1
tp1588
g18
I00
S'\xb69\xffXf\tJA'
p1589
tp1590
bsg48
F1.6855406373171107
sg49
F0.050000000000000003
sg50
g8
(g9
(I0
tp1591
g11
tp1592
Rp1593
(I1
(I1
I1
tp1594
g18
I00
S'\x00\x00\x00\xe0MbP?'
p1595
tp1596
bsg57
g26
(g18
S'LeH\x946\xdb\xc8?'
p1597
tp1598
Rp1599
sbag1
(g2
g3
Ntp1600
Rp1601
(dp1602
g7
g8
(g9
(I0
tp1603
g11
tp1604
Rp1605
(I1
(I1
I1
tp1606
g18
I00
S"\x04m(\t'\x17U?"
p1607
tp1608
bsg23
F19.454650195350347
sg24
F16.132258320886642
sg25
g34
sg35
I0
sg36
I01
sg37
F19.890578869163583
sg38
I66
sg39
g40
sg41
g8
(g9
(I0
tp1609
g11
tp1610
Rp1611
(I1
(I1
I1
tp1612
g18
I00
S'\xa2\xeajKuXcA'
p1613
tp1614
bsg48
F0.87185734762647371
sg49
F0.050000000000000003
sg50
g8
(g9
(I0
tp1615
g11
tp1616
Rp1617
(I1
(I1
I1
tp1618
g18
I00
S'\x00\x00\x00\xe0MbP?'
p1619
tp1620
bsg57
g26
(g18
S'\x04\xcb\xf7\xb9\xa2m\xd6?'
p1621
tp1622
Rp1623
sbag1
(g2
g3
Ntp1624
Rp1625
(dp1626
g7
g8
(g9
(I0
tp1627
g11
tp1628
Rp1629
(I1
(I1
I1
tp1630
g18
I00
S'oebmZcK?'
p1631
tp1632
bsg23
F17.47693301535373
sg24
F18.654752998437921
sg25
g34
sg35
I0
sg36
I01
sg37
F19.152696525683762
sg38
I67
sg39
g40
sg41
g8
(g9
(I0
tp1633
g11
tp1634
Rp1635
(I1
(I1
I1
tp1636
g18
I00
S'\xda\xaf\xcb/;!\x9eA'
p1637
tp1638
bsg48
F3.3515270206600647
sg49
F0.050000000000000003
sg50
g8
(g9
(I0
tp1639
g11
tp1640
Rp1641
(I1
(I1
I1
tp1642
g18
I00
S'\x00\x00\x00\xe0MbP?'
p1643
tp1644
bsg57
g26
(g18
S'w\xc5H\x99C0\xb1?'
p1645
tp1646
Rp1647
sbag1
(g2
g3
Ntp1648
Rp1649
(dp1650
g7
g8
(g9
(I0
tp1651
g11
tp1652
Rp1653
(I1
(I1
I1
tp1654
g18
I00
S'^8\xbdQ\x06\xebP?'
p1655
tp1656
bsg23
F20.895698075703862
sg24
F17.249682395698329
sg25
g34
sg35
I0
sg36
I01
sg37
F20.911670912910978
sg38
I68
sg39
g40
sg41
g8
(g9
(I0
tp1657
g11
tp1658
Rp1659
(I1
(I1
I1
tp1660
g18
I00
S'(\xd1\x8b\xc2\xc1\x91}A'
p1661
tp1662
bsg48
F0.031945674414231462
sg49
F0.050000000000000003
sg50
g8
(g9
(I0
tp1663
g11
tp1664
Rp1665
(I1
(I1
I1
tp1666
g18
I00
S'\x00\x00\x00\xe0MbP?'
p1667
tp1668
bsg57
g26
(g18
S'g\x0e\xae\x92\xf0u\xeb?'
p1669
tp1670
Rp1671
sbag1
(g2
g3
Ntp1672
Rp1673
(dp1674
g7
g8
(g9
(I0
tp1675
g11
tp1676
Rp1677
(I1
(I1
I1
tp1678
g18
I00
S'j\x10j\x7f\xe0\xdeM?'
p1679
tp1680
bsg23
F17.362957223947305
sg24
F16.921727568641224
sg25
g34
sg35
I0
sg36
I01
sg37
F17.446998126932069
sg38
I69
sg39
g40
sg41
g8
(g9
(I0
tp1681
g11
tp1682
Rp1683
(I1
(I1
I1
tp1684
g18
I00
S'>\x8e\xf9 8MuA'
p1685
tp1686
bsg48
F0.16808180596952838
sg49
F0.050000000000000003
sg50
g8
(g9
(I0
tp1687
g11
tp1688
Rp1689
(I1
(I1
I1
tp1690
g18
I00
S'\x00\x00\x00\xe0MbP?'
p1691
tp1692
bsg57
g26
(g18
S'x\\Z\xd7|\xd1\xe5?'
p1693
tp1694
Rp1695
sbag1
(g2
g3
Ntp1696
Rp1697
(dp1698
g7
g8
(g9
(I0
tp1699
g11
tp1700
Rp1701
(I1
(I1
I1
tp1702
g18
I00
S'S\xfdttR\xf8M?'
p1703
tp1704
bsg23
F19.538005352159562
sg24
F17.443513864853113
sg25
g34
sg35
I0
sg36
I01
sg37
F19.670422991578942
sg38
I70
sg39
g40
sg41
g8
(g9
(I0
tp1705
g11
tp1706
Rp1707
(I1
(I1
I1
tp1708
g18
I00
S'0^\x94\xb6n\xf2\x81A'
p1709
tp1710
bsg48
F0.26483527883875979
sg49
F0.050000000000000003
sg50
g8
(g9
(I0
tp1711
g11
tp1712
Rp1713
(I1
(I1
I1
tp1714
g18
I00
S'\x00\x00\x00\xe0MbP?'
p1715
tp1716
bsg57
g26
(g18
S'\xbaW\x88\xa0\x0ck\xe3?'
p1717
tp1718
Rp1719
sbag1
(g2
g3
Ntp1720
Rp1721
(dp1722
g7
g8
(g9
(I0
tp1723
g11
tp1724
Rp1725
(I1
(I1
I1
tp1726
g18
I00
S'\xb1\xad\x15V\x89\xc7S?'
p1727
tp1728
bsg23
F15.023331105978894
sg24
F17.844133393676618
sg25
g34
sg35
I0
sg36
I01
sg37
F16.261111846916748
sg38
I71
sg39
g40
sg41
g8
(g9
(I0
tp1729
g11
tp1730
Rp1731
(I1
(I1
I1
tp1732
g18
I00
S'\x14\xe3s\xe0U\xca\x8aA'
p1733
tp1734
bsg48
F2.4755614818757081
sg49
F0.050000000000000003
sg50
g8
(g9
(I0
tp1735
g11
tp1736
Rp1737
(I1
(I1
I1
tp1738
g18
I00
S'\x00\x00\x00\xe0MbP?'
p1739
tp1740
bsg57
g26
(g18
S'\xe3M\x1d\\\xce\x99\xbd?'
p1741
tp1742
Rp1743
sbag1
(g2
g3
Ntp1744
Rp1745
(dp1746
g7
g8
(g9
(I0
tp1747
g11
tp1748
Rp1749
(I1
(I1
I1
tp1750
g18
I00
S'\x82\xb7x\x19\xbdCP?'
p1751
tp1752
bsg23
F25.209378972070397
sg24
F17.556771395434577
sg25
g34
sg35
I0
sg36
I01
sg37
F25.2107489529856
sg38
I72
sg39
g40
sg41
g8
(g9
(I0
tp1753
g11
tp1754
Rp1755
(I1
(I1
I1
tp1756
g18
I00
S'\xc2\x1b\xea\xf2e\x19\x84A'
p1757
tp1758
bsg48
F0.002739961830407367
sg49
F0.050000000000000003
sg50
g8
(g9
(I0
tp1759
g11
tp1760
Rp1761
(I1
(I1
I1
tp1762
g18
I00
S'\x00\x00\x00\xe0MbP?'
p1763
tp1764
bsg57
g26
(g18
S'\xe3\xb8=v\x04\xaa\xee?'
p1765
tp1766
Rp1767
sbag1
(g2
g3
Ntp1768
Rp1769
(dp1770
g7
g8
(g9
(I0
tp1771
g11
tp1772
Rp1773
(I1
(I1
I1
tp1774
g18
I00
S'\xb8\x81\x8d\xb3F\xccQ?'
p1775
tp1776
bsg23
F12.667885767770935
sg24
F18.162232290157007
sg25
g34
sg35
I0
sg36
I01
sg37
F12.9543353498984
sg38
I73
sg39
g40
sg41
g8
(g9
(I0
tp1777
g11
tp1778
Rp1779
(I1
(I1
I1
tp1780
g18
I00
S'a\xa1\x9b\xceni\x92A'
p1781
tp1782
bsg48
F0.57289916425493104
sg49
F0.050000000000000003
sg50
g8
(g9
(I0
tp1783
g11
tp1784
Rp1785
(I1
(I1
I1
tp1786
g18
I00
S'\x00\x00\x00\xe0MbP?'
p1787
tp1788
bsg57
g26
(g18
S'@,\xddX4\xbe\xdc?'
p1789
tp1790
Rp1791
sbag1
(g2
g3
Ntp1792
Rp1793
(dp1794
g7
g8
(g9
(I0
tp1795
g11
tp1796
Rp1797
(I1
(I1
I1
tp1798
g18
I00
S'\xaa\x1f\x0fo\xb5\xd1N?'
p1799
tp1800
bsg23
F19.31210789773785
sg24
F17.746072615730366
sg25
g34
sg35
I0
sg36
I01
sg37
F19.401277011891459
sg38
I74
sg39
g40
sg41
g8
(g9
(I0
tp1801
g11
tp1802
Rp1803
(I1
(I1
I1
tp1804
g18
I00
S'\xba\x9f\xfdr\xb9I\x88A'
p1805
tp1806
bsg48
F0.17833822830721857
sg49
F0.050000000000000003
sg50
g8
(g9
(I0
tp1807
g11
tp1808
Rp1809
(I1
(I1
I1
tp1810
g18
I00
S'\x00\x00\x00\xe0MbP?'
p1811
tp1812
bsg57
g26
(g18
S'/i\xc1\xde\x9e\x87\xe5?'
p1813
tp1814
Rp1815
sbag1
(g2
g3
Ntp1816
Rp1817
(dp1818
g7
g8
(g9
(I0
tp1819
g11
tp1820
Rp1821
(I1
(I1
I1
tp1822
g18
I00
S'\x91\xa7\x03\x0e\xe5)U?'
p1823
tp1824
bsg23
F16.625831172684489
sg24
F14.607192740558693
sg25
g34
sg35
I0
sg36
I01
sg37
F16.723730786916668
sg38
I75
sg39
g40
sg41
g8
(g9
(I0
tp1825
g11
tp1826
Rp1827
(I1
(I1
I1
tp1828
g18
I00
S'\x92\x06\xc3\x07\xc1\xd6@A'
p1829
tp1830
bsg48
F0.19579922846435949
sg49
F0.050000000000000003
sg50
g8
(g9
(I0
tp1831
g11
tp1832
Rp1833
(I1
(I1
I1
tp1834
g18
I00
S'\x00\x00\x00\xe0MbP?'
p1835
tp1836
bsg57
g26
(g18
S'\xcbe`Km\x0f\xe5?'
p1837
tp1838
Rp1839
sbag1
(g2
g3
Ntp1840
Rp1841
(dp1842
g7
g8
(g9
(I0
tp1843
g11
tp1844
Rp1845
(I1
(I1
I1
tp1846
g18
I00
S'+\xa5\xddo\xe0\xe9T?'
p1847
tp1848
bsg23
F19.866673842042669
sg24
F16.321161099074452
sg25
g34
sg35
I0
sg36
I01
sg37
F20.353446357093375
sg38
I76
sg39
g40
sg41
g8
(g9
(I0
tp1849
g11
tp1850
Rp1851
(I1
(I1
I1
tp1852
g18
I00
S'"\xab\xdb\xcf0^gA'
p1853
tp1854
bsg48
F0.97354503010141258
sg49
F0.050000000000000003
sg50
g8
(g9
(I0
tp1855
g11
tp1856
Rp1857
(I1
(I1
I1
tp1858
g18
I00
S'\x00\x00\x00\xe0MbP?'
p1859
tp1860
bsg57
g26
(g18
S'\xc8:K\xc4\x19\xb9\xd4?'
p1861
tp1862
Rp1863
sbag1
(g2
g3
Ntp1864
Rp1865
(dp1866
g7
g8
(g9
(I0
tp1867
g11
tp1868
Rp1869
(I1
(I1
I1
tp1870
g18
I00
S'0\xfb\xa2\x8b=\xf0T?'
p1871
tp1872
bsg23
F17.546498538774802
sg24
F17.769611623720198
sg25
g312
sg35
I0
sg36
I01
sg37
F19.641884654148729
sg38
I77
sg39
g40
sg41
g8
(g9
(I0
tp1873
g11
tp1874
Rp1875
(I1
(I1
I1
tp1876
g18
I00
S'\xc1\xc7>\xd4\xd1\xdd\x88A'
p1877
tp1878
bsg48
F4.1907722307478537
sg49
F0.050000000000000003
sg50
g8
(g9
(I0
tp1879
g11
tp1880
Rp1881
(I1
(I1
I1
tp1882
g18
I00
S'\x00\x00\x00\xe0MbP?'
p1883
tp1884
bsg57
g26
(g18
S'\x8f\xb5\x89\xc3]\xcf\xa4?'
p1885
tp1886
Rp1887
sbag1
(g2
g3
Ntp1888
Rp1889
(dp1890
g7
g8
(g9
(I0
tp1891
g11
tp1892
Rp1893
(I1
(I1
I1
tp1894
g18
I00
S'W\xf7\x85nJ\xe1P?'
p1895
tp1896
bsg23
F10.50952433888523
sg24
F16.895642156387304
sg25
g34
sg35
I0
sg36
I01
sg37
F10.519139745879672
sg38
I78
sg39
g40
sg41
g8
(g9
(I0
tp1897
g11
tp1898
Rp1899
(I1
(I1
I1
tp1900
g18
I00
S'O\x01L\x1f\xcf\xc0tA'
p1901
tp1902
bsg48
F0.01923081398888371
sg49
F0.050000000000000003
sg50
g8
(g9
(I0
tp1903
g11
tp1904
Rp1905
(I1
(I1
I1
tp1906
g18
I00
S'\x00\x00\x00\xe0MbP?'
p1907
tp1908
bsg57
g26
(g18
S'\xd6\x0fmizx\xec?'
p1909
tp1910
Rp1911
sbag1
(g2
g3
Ntp1912
Rp1913
(dp1914
g7
g8
(g9
(I0
tp1915
g11
tp1916
Rp1917
(I1
(I1
I1
tp1918
g18
I00
S'\x00\x00\x00\xe0MbP?'
p1919
tp1920
bsg23
F17.788059195096036
sg24
F16.152871907718534
sg25
g34
sg35
I0
sg36
I01
sg37
F17.788059195096036
sg38
I79
sg39
g40
sg41
g8
(g9
(I0
tp1921
g11
tp1922
Rp1923
(I1
(I1
I1
tp1924
g18
I00
S'\xdf\xc0\xfa\x06\x9b\xbfcA'
p1925
tp1926
bsg48
F0.0
sg49
F0.050000000000000003
sg50
g8
(g9
(I0
tp1927
g11
tp1928
Rp1929
(I1
(I1
I1
tp1930
g18
I00
S'\x00\x00\x00\xe0MbP?'
p1931
tp1932
bsg57
g26
(g18
S'\x00\x00\x00\x00\x00\x00\xf0?'
p1933
tp1934
Rp1935
sbag1
(g2
g3
Ntp1936
Rp1937
(dp1938
g7
g8
(g9
(I0
tp1939
g11
tp1940
Rp1941
(I1
(I1
I1
tp1942
g18
I00
S'\xfd\x1fA`\x80(S?'
p1943
tp1944
bsg23
F12.624339238225129
sg24
F17.865479182829866
sg25
g34
sg35
I0
sg36
I01
sg37
F13.472611864311251
sg38
I80
sg39
g40
sg41
g8
(g9
(I0
tp1945
g11
tp1946
Rp1947
(I1
(I1
I1
tp1948
g18
I00
S'\xbc!\xc4AN^\x8bA'
p1949
tp1950
bsg48
F1.6965452521722426
sg49
F0.050000000000000003
sg50
g8
(g9
(I0
tp1951
g11
tp1952
Rp1953
(I1
(I1
I1
tp1954
g18
I00
S'\x00\x00\x00\xe0MbP?'
p1955
tp1956
bsg57
g26
(g18
S'\xbc\xc6@\xb0\xb7\xab\xc8?'
p1957
tp1958
Rp1959
sbag1
(g2
g3
Ntp1960
Rp1961
(dp1962
g7
g8
(g9
(I0
tp1963
g11
tp1964
Rp1965
(I1
(I1
I1
tp1966
g18
I00
S'\xc3\x16\xc5KF\xe6R?'
p1967
tp1968
bsg23
F24.051526522292374
sg24
F16.276838000601462
sg25
g34
sg35
I0
sg36
I01
sg37
F24.192785833591429
sg38
I81
sg39
g40
sg41
g8
(g9
(I0
tp1969
g11
tp1970
Rp1971
(I1
(I1
I1
tp1972
g18
I00
S'\xc0\xf1U\xea\xd4ZfA'
p1973
tp1974
bsg48
F0.28251862259811134
sg49
F0.050000000000000003
sg50
g8
(g9
(I0
tp1975
g11
tp1976
Rp1977
(I1
(I1
I1
tp1978
g18
I00
S'\x00\x00\x00\xe0MbP?'
p1979
tp1980
bsg57
g26
(g18
S'\x8f K\x1b\xb1\n\xe3?'
p1981
tp1982
Rp1983
sbag1
(g2
g3
Ntp1984
Rp1985
(dp1986
g7
g8
(g9
(I0
tp1987
g11
tp1988
Rp1989
(I1
(I1
I1
tp1990
g18
I00
S'~\xb26p%\xa1S?'
p1991
tp1992
bsg23
F24.03981518925444
sg24
F16.327525347344842
sg25
g34
sg35
I0
sg36
I01
sg37
F24.287536994973575
sg38
I82
sg39
g40
sg41
g8
(g9
(I0
tp1993
g11
tp1994
Rp1995
(I1
(I1
I1
tp1996
g18
I00
S'?\xd5\xa2\\b\x84gA'
p1997
tp1998
bsg48
F0.49544361143826876
sg49
F0.050000000000000003
sg50
g8
(g9
(I0
tp1999
g11
tp2000
Rp2001
(I1
(I1
I1
tp2002
g18
I00
S'\x00\x00\x00\xe0MbP?'
p2003
tp2004
bsg57
g26
(g18
S'b\x94\xfb@\x0b\xd1\xde?'
p2005
tp2006
Rp2007
sbag1
(g2
g3
Ntp2008
Rp2009
(dp2010
g7
g8
(g9
(I0
tp2011
g11
tp2012
Rp2013
(I1
(I1
I1
tp2014
g18
I00
S'P\xdc\x9b5\x8b\x8cL?'
p2015
tp2016
bsg23
F18.828970416196178
sg24
F16.966143818270499
sg25
g34
sg35
I0
sg36
I01
sg37
F19.02103942105375
sg38
I83
sg39
g40
sg41
g8
(g9
(I0
tp2017
g11
tp2018
Rp2019
(I1
(I1
I1
tp2020
g18
I00
S',\xe9\x07\xf1\xe3DvA'
p2021
tp2022
bsg48
F0.38413800971514434
sg49
F0.050000000000000003
sg50
g8
(g9
(I0
tp2023
g11
tp2024
Rp2025
(I1
(I1
I1
tp2026
g18
I00
S'\x00\x00\x00\xe0MbP?'
p2027
tp2028
bsg57
g26
(g18
S'^\xa5u\xb9\xf8!\xe1?'
p2029
tp2030
Rp2031
sbag1
(g2
g3
Ntp2032
Rp2033
(dp2034
g7
g8
(g9
(I0
tp2035
g11
tp2036
Rp2037
(I1
(I1
I1
tp2038
g18
I00
S'\xe4W\xef\x88\x94\xfeN?'
p2039
tp2040
bsg23
F13.979294568318455
sg24
F17.153885047864271
sg25
g34
sg35
I0
sg36
I01
sg37
F14.020397470658908
sg38
I84
sg39
g40
sg41
g8
(g9
(I0
tp2041
g11
tp2042
Rp2043
(I1
(I1
I1
tp2044
g18
I00
S'\xc2\xf8\xdb\xd7>\xdezA'
p2045
tp2046
bsg48
F0.08220580468090688
sg49
F0.050000000000000003
sg50
g8
(g9
(I0
tp2047
g11
tp2048
Rp2049
(I1
(I1
I1
tp2050
g18
I00
S'\x00\x00\x00\xe0MbP?'
p2051
tp2052
bsg57
g26
(g18
S'^?\x83\xfcO\xc7\xe8?'
p2053
tp2054
Rp2055
sbag1
(g2
g3
Ntp2056
Rp2057
(dp2058
g7
g8
(g9
(I0
tp2059
g11
tp2060
Rp2061
(I1
(I1
I1
tp2062
g18
I00
S'\xb8\x9dfL\x83VY?'
p2063
tp2064
bsg23
F20.873499587205387
sg24
F15.269161317033547
sg25
g34
sg35
I0
sg36
I01
sg37
F21.570144643424591
sg38
I85
sg39
g40
sg41
g8
(g9
(I0
tp2065
g11
tp2066
Rp2067
(I1
(I1
I1
tp2068
g18
I00
S'\x08\x10\x0c\xa4lRPA'
p2069
tp2070
bsg48
F1.3932901124384074
sg49
F0.050000000000000003
sg50
g8
(g9
(I0
tp2071
g11
tp2072
Rp2073
(I1
(I1
I1
tp2074
g18
I00
S'\x00\x00\x00\xe0MbP?'
p2075
tp2076
bsg57
g26
(g18
S'x9%\x9f\xe0q\xce?'
p2077
tp2078
Rp2079
sbag1
(g2
g3
Ntp2080
Rp2081
(dp2082
g7
g8
(g9
(I0
tp2083
g11
tp2084
Rp2085
(I1
(I1
I1
tp2086
g18
I00
S'Z\x1d\x12\xc0\xf9\xc5a?'
p2087
tp2088
bsg23
F23.025595867553928
sg24
F14.722120604917938
sg25
g312
sg35
I0
sg36
I01
sg37
F25.069941200921892
sg38
I86
sg39
g40
sg41
g8
(g9
(I0
tp2089
g11
tp2090
Rp2091
(I1
(I1
I1
tp2092
g18
I00
S'g\xf3\x0f\x87\xc5\xe3BA'
p2093
tp2094
bsg48
F4.0886906667359284
sg49
F0.050000000000000003
sg50
g8
(g9
(I0
tp2095
g11
tp2096
Rp2097
(I1
(I1
I1
tp2098
g18
I00
S'\x00\x00\x00\xe0MbP?'
p2099
tp2100
bsg57
g26
(g18
S'n\xbd_\xd2\x84\x1a\xa6?'
p2101
tp2102
Rp2103
sbag1
(g2
g3
Ntp2104
Rp2105
(dp2106
g7
g8
(g9
(I0
tp2107
g11
tp2108
Rp2109
(I1
(I1
I1
tp2110
g18
I00
S'\xa9\x01\xfd\xe8$jO?'
p2111
tp2112
bsg23
F16.082443581935937
sg24
F16.573503434187696
sg25
g34
sg35
I0
sg36
I01
sg37
F16.096077302456202
sg38
I87
sg39
g40
sg41
g8
(g9
(I0
tp2113
g11
tp2114
Rp2115
(I1
(I1
I1
tp2116
g18
I00
S'0\x11`PL\x13nA'
p2117
tp2118
bsg48
F0.027267441040528695
sg49
F0.050000000000000003
sg50
g8
(g9
(I0
tp2119
g11
tp2120
Rp2121
(I1
(I1
I1
tp2122
g18
I00
S'\x00\x00\x00\xe0MbP?'
p2123
tp2124
bsg57
g26
(g18
S'\xcf\xb2\x89g\x8f\xcd\xeb?'
p2125
tp2126
Rp2127
sbag1
(g2
g3
Ntp2128
Rp2129
(dp2130
g7
g8
(g9
(I0
tp2131
g11
tp2132
Rp2133
(I1
(I1
I1
tp2134
g18
I00
S'\x0e\xec\xd6)o=W?'
p2135
tp2136
bsg23
F15.143636615148042
sg24
F14.934463210346834
sg25
g34
sg35
I0
sg36
I01
sg37
F15.429591727512818
sg38
I88
sg39
g40
sg41
g8
(g9
(I0
tp2137
g11
tp2138
Rp2139
(I1
(I1
I1
tp2140
g18
I00
S'OY=\xf5\xc6[GA'
p2141
tp2142
bsg48
F0.57191022472955311
sg49
F0.050000000000000003
sg50
g8
(g9
(I0
tp2143
g11
tp2144
Rp2145
(I1
(I1
I1
tp2146
g18
I00
S'\x00\x00\x00\xe0MbP?'
p2147
tp2148
bsg57
g26
(g18
S'd\xff\xce,\x9f\xc4\xdc?'
p2149
tp2150
Rp2151
sbag1
(g2
g3
Ntp2152
Rp2153
(dp2154
g7
g8
(g9
(I0
tp2155
g11
tp2156
Rp2157
(I1
(I1
I1
tp2158
g18
I00
S'\xa1\xfeN\xa1\xd2\xb1V?'
p2159
tp2160
bsg23
F23.569133380890843
sg24
F14.588142860812152
sg25
g34
sg35
I0
sg36
I01
sg37
F23.739575804655164
sg38
I89
sg39
g40
sg41
g8
(g9
(I0
tp2161
g11
tp2162
Rp2163
(I1
(I1
I1
tp2164
g18
I00
S'\xdcblsi\x85@A'
p2165
tp2166
bsg48
F0.3408848475286419
sg49
F0.050000000000000003
sg50
g8
(g9
(I0
tp2167
g11
tp2168
Rp2169
(I1
(I1
I1
tp2170
g18
I00
S'\x00\x00\x00\xe0MbP?'
p2171
tp2172
bsg57
g26
(g18
S's\n\x80\xc8\xf0\xe5\xe1?'
p2173
tp2174
Rp2175
sbag1
(g2
g3
Ntp2176
Rp2177
(dp2178
g7
g8
(g9
(I0
tp2179
g11
tp2180
Rp2181
(I1
(I1
I1
tp2182
g18
I00
S'L\xaf\\\x06=\xfeP?'
p2183
tp2184
bsg23
F19.622743639973354
sg24
F17.87847076973042
sg25
g34
sg35
I0
sg36
I01
sg37
F19.662080248191266
sg38
I90
sg39
g40
sg41
g8
(g9
(I0
tp2185
g11
tp2186
Rp2187
(I1
(I1
I1
tp2188
g18
I00
S'\xd9J\x9f,\xec\xb9\x8bA'
p2189
tp2190
bsg48
F0.078673216435824145
sg49
F0.050000000000000003
sg50
g8
(g9
(I0
tp2191
g11
tp2192
Rp2193
(I1
(I1
I1
tp2194
g18
I00
S'\x00\x00\x00\xe0MbP?'
p2195
tp2196
bsg57
g26
(g18
S'\x02\x19\xd7\x8dj\xee\xe8?'
p2197
tp2198
Rp2199
sbag1
(g2
g3
Ntp2200
Rp2201
(dp2202
g7
g8
(g9
(I0
tp2203
g11
tp2204
Rp2205
(I1
(I1
I1
tp2206
g18
I00
S'\xa4|\x87}\x8a^O?'
p2207
tp2208
bsg23
F26.099515577397607
sg24
F19.031123207325024
sg25
g34
sg35
I0
sg36
I01
sg37
F26.269189183384501
sg38
I91
sg39
g40
sg41
g8
(g9
(I0
tp2209
g11
tp2210
Rp2211
(I1
(I1
I1
tp2212
g18
I00
S'\r?}\\\t\xf3\xa5A'
p2213
tp2214
bsg48
F0.33934721197378792
sg49
F0.050000000000000003
sg50
g8
(g9
(I0
tp2215
g11
tp2216
Rp2217
(I1
(I1
I1
tp2218
g18
I00
S'\x00\x00\x00\xe0MbP?'
p2219
tp2220
bsg57
g26
(g18
S'R|\xfa\xb05\xed\xe1?'
p2221
tp2222
Rp2223
sbag1
(g2
g3
Ntp2224
Rp2225
(dp2226
g7
g8
(g9
(I0
tp2227
g11
tp2228
Rp2229
(I1
(I1
I1
tp2230
g18
I00
S'8\xe7\x93\x8al\xcdH?'
p2231
tp2232
bsg23
F24.424774934581116
sg24
F16.833643105027672
sg25
g34
sg35
I0
sg36
I01
sg37
F25.009712218516324
sg38
I92
sg39
g40
sg41
g8
(g9
(I0
tp2233
g11
tp2234
Rp2235
(I1
(I1
I1
tp2236
g18
I00
S'\x03\xde\xe9Ml\x81sA'
p2237
tp2238
bsg48
F1.1698745678704157
sg49
F0.050000000000000003
sg50
g8
(g9
(I0
tp2239
g11
tp2240
Rp2241
(I1
(I1
I1
tp2242
g18
I00
S'\x00\x00\x00\xe0MbP?'
p2243
tp2244
bsg57
g26
(g18
S'\x98\x9a\xaf\xd8!\xe2\xd1?'
p2245
tp2246
Rp2247
sbag1
(g2
g3
Ntp2248
Rp2249
(dp2250
g7
g8
(g9
(I0
tp2251
g11
tp2252
Rp2253
(I1
(I1
I1
tp2254
g18
I00
S'\x1b\\l4|zP?'
p2255
tp2256
bsg23
F18.870538228572801
sg24
F18.390411247229949
sg25
g34
sg35
I0
sg36
I01
sg37
F18.871688217031405
sg38
I93
sg39
g40
sg41
g8
(g9
(I0
tp2257
g11
tp2258
Rp2259
(I1
(I1
I1
tp2260
g18
I00
S'3 \xc2\x8e\x88!\x97A'
p2261
tp2262
bsg48
F0.0022999769172074025
sg49
F0.050000000000000003
sg50
g8
(g9
(I0
tp2263
g11
tp2264
Rp2265
(I1
(I1
I1
tp2266
g18
I00
S'\x00\x00\x00\xe0MbP?'
p2267
tp2268
bsg57
g26
(g18
S'm\xc8\xcf6\xa7\xc6\xee?'
p2269
tp2270
Rp2271
sbag1
(g2
g3
Ntp2272
Rp2273
(dp2274
g7
g8
(g9
(I0
tp2275
g11
tp2276
Rp2277
(I1
(I1
I1
tp2278
g18
I00
S'\xfcl\xbb;\x1e\xf9Q?'
p2279
tp2280
bsg23
F19.164169132170649
sg24
F18.785688693672075
sg25
g34
sg35
I0
sg36
I01
sg37
F19.840865279107103
sg38
I94
sg39
g40
sg41
g8
(g9
(I0
tp2281
g11
tp2282
Rp2283
(I1
(I1
I1
tp2284
g18
I00
S';\xb8\xf9\x83",\xa1A'
p2285
tp2286
bsg48
F1.3533922938729077
sg49
F0.050000000000000003
sg50
g8
(g9
(I0
tp2287
g11
tp2288
Rp2289
(I1
(I1
I1
tp2290
g18
I00
S'\x00\x00\x00\xe0MbP?'
p2291
tp2292
bsg57
g26
(g18
S't.\x8e{\xdeQ\xcf?'
p2293
tp2294
Rp2295
sbag1
(g2
g3
Ntp2296
Rp2297
(dp2298
g7
g8
(g9
(I0
tp2299
g11
tp2300
Rp2301
(I1
(I1
I1
tp2302
g18
I00
S'\xf4\xb6\x9f\x10\x94\xedP?'
p2303
tp2304
bsg23
F21.603107340086463
sg24
F16.415256542007462
sg25
g34
sg35
I0
sg36
I01
sg37
F21.610311998973994
sg38
I95
sg39
g40
sg41
g8
(g9
(I0
tp2305
g11
tp2306
Rp2307
(I1
(I1
I1
tp2308
g18
I00
S'\x04\x8e\xe1\xcek\xaciA'
p2309
tp2310
bsg48
F0.014409317775061936
sg49
F0.050000000000000003
sg50
g8
(g9
(I0
tp2311
g11
tp2312
Rp2313
(I1
(I1
I1
tp2314
g18
I00
S'\x00\x00\x00\xe0MbP?'
p2315
tp2316
bsg57
g26
(g18
S"/\x93\xd6'F\xf1\xec?"
p2317
tp2318
Rp2319
sbag1
(g2
g3
Ntp2320
Rp2321
(dp2322
g7
g8
(g9
(I0
tp2323
g11
tp2324
Rp2325
(I1
(I1
I1
tp2326
g18
I00
S'\x93\xc5\xb1\xeb\xb1\x12b?'
p2327
tp2328
bsg23
F30.434582899262121
sg24
F14.177414611068679
sg25
g34
sg35
I0
sg36
I01
sg37
F31.706274194817855
sg38
I96
sg39
g40
sg41
g8
(g9
(I0
tp2329
g11
tp2330
Rp2331
(I1
(I1
I1
tp2332
g18
I00
S'9kU&\x9d\xe95A'
p2333
tp2334
bsg48
F2.5433825911114667
sg49
F0.050000000000000003
sg50
g8
(g9
(I0
tp2335
g11
tp2336
Rp2337
(I1
(I1
I1
tp2338
g18
I00
S'\x00\x00\x00\xe0MbP?'
p2339
tp2340
bsg57
g26
(g18
S'\x19=i\xcb\x96Z\xbc?'
p2341
tp2342
Rp2343
sbag1
(g2
g3
Ntp2344
Rp2345
(dp2346
g7
g8
(g9
(I0
tp2347
g11
tp2348
Rp2349
(I1
(I1
I1
tp2350
g18
I00
S'\xed\x13\xc5\xeb\xfePQ?'
p2351
tp2352
bsg23
F20.643723947873827
sg24
F17.063357541114527
sg25
g34
sg35
I0
sg36
I01
sg37
F20.685273144723975
sg38
I97
sg39
g40
sg41
g8
(g9
(I0
tp2353
g11
tp2354
Rp2355
(I1
(I1
I1
tp2356
g18
I00
S'\xc5\xd1\xcf\x89\xed\x8axA'
p2357
tp2358
bsg48
F0.083098393700296924
sg49
F0.050000000000000003
sg50
g8
(g9
(I0
tp2359
g11
tp2360
Rp2361
(I1
(I1
I1
tp2362
g18
I00
S'\x00\x00\x00\xe0MbP?'
p2363
tp2364
bsg57
g26
(g18
S'j\x13\xe6\x94\x93\xbd\xe8?'
p2365
tp2366
Rp2367
sbag1
(g2
g3
Ntp2368
Rp2369
(dp2370
g7
g8
(g9
(I0
tp2371
g11
tp2372
Rp2373
(I1
(I1
I1
tp2374
g18
I00
S'=\xb3S\x9eV0M?'
p2375
tp2376
bsg23
F18.861383477561414
sg24
F17.417760454201705
sg25
g34
sg35
I0
sg36
I01
sg37
F19.07970780707328
sg38
I98
sg39
g40
sg41
g8
(g9
(I0
tp2377
g11
tp2378
Rp2379
(I1
(I1
I1
tp2380
g18
I00
S'\xb9\xbc\xfd\xea\x9e}\x81A'
p2381
tp2382
bsg48
F0.43664865902373151
sg49
F0.050000000000000003
sg50
g8
(g9
(I0
tp2383
g11
tp2384
Rp2385
(I1
(I1
I1
tp2386
g18
I00
S'\x00\x00\x00\xe0MbP?'
p2387
tp2388
bsg57
g26
(g18
S'\xea\x9e t\xa2G\xe0?'
p2389
tp2390
Rp2391
sbag1
(g2
g3
Ntp2392
Rp2393
(dp2394
g7
g8
(g9
(I0
tp2395
g11
tp2396
Rp2397
(I1
(I1
I1
tp2398
g18
I00
S'\xcb\xde\xd7/\x08\x19Q?'
p2399
tp2400
bsg23
F17.026382943491285
sg24
F17.344872157489906
sg25
g34
sg35
I0
sg36
I01
sg37
F17.05841095914241
sg38
I99
sg39
g40
sg41
g8
(g9
(I0
tp2401
g11
tp2402
Rp2403
(I1
(I1
I1
tp2404
g18
I00
S'\xdf\x98zn\xddB\x80A'
p2405
tp2406
bsg48
F0.06405603130225046
sg49
F0.050000000000000003
sg50
g8
(g9
(I0
tp2407
g11
tp2408
Rp2409
(I1
(I1
I1
tp2410
g18
I00
S'\x00\x00\x00\xe0MbP?'
p2411
tp2412
bsg57
g26
(g18
S'x\xa9\x1b|5\x9b\xe9?'
p2413
tp2414
Rp2415
sbag1
(g2
g3
Ntp2416
Rp2417
(dp2418
g7
g8
(g9
(I0
tp2419
g11
tp2420
Rp2421
(I1
(I1
I1
tp2422
g18
I00
S'\xd7\x1d5H\xf1\xa87?'
p2423
tp2424
bsg23
F19.552588634084351
sg24
F15.349675693086047
sg25
g34
sg35
I0
sg36
I01
sg37
F20.410112932598345
sg38
I100
sg39
g40
sg41
g8
(g9
(I0
tp2425
g11
tp2426
Rp2427
(I1
(I1
I1
tp2428
g18
I00
S'\x8c\xf3\x1b\x11\xc3\xb0QA'
p2429
tp2430
bsg48
F1.7150485970279874
sg49
F0.050000000000000003
sg50
g8
(g9
(I0
tp2431
g11
tp2432
Rp2433
(I1
(I1
I1
tp2434
g18
I00
S'\x00\x00\x00\xe0MbP?'
p2435
tp2436
bsg57
g26
(g18
S'\\\x88\xae\x97\xc9\\\xc8?'
p2437
tp2438
Rp2439
sba.