(lp0
ccopy_reg
_reconstructor
p1
(ctestcr
WOHoc
p2
c__builtin__
object
p3
Ntp4
Rp5
(dp6
S'mle'
p7
cnumpy.core.multiarray
_reconstruct
p8
(cnumpy.core.defmatrix
matrix
p9
(I0
tp10
S'b'
p11
tp12
Rp13
(I1
(I1
I1
tp14
cnumpy
dtype
p15
(S'f8'
p16
I0
I1
tp17
Rp18
(I3
S'<'
p19
NNNI-1
I-1
I0
tp20
bI00
S'\xceX\x9a\xff\x18JE?'
p21
tp22
bsS'ml'
p23
F11.50918308345706
sS'precision'
p24
F14.232189420966604
sS'covers'
p25
cnumpy.core.multiarray
scalar
p26
(g15
(S'b1'
p27
I0
I1
tp28
Rp29
(I3
S'|'
p30
NNNI-1
I-1
I0
tp31
bS'\x01'
p32
tp33
Rp34
sS'n'
p35
I0
sS'likefailed'
p36
I01
sS'tl'
p37
F11.583161823937973
sS'seed'
p38
I1
sS'modelses'
p39
S'rc8.ses'
p40
sS'H'
p41
g8
(g9
(I0
tp42
g11
tp43
Rp44
(I1
(I1
I1
tp45
g18
I00
S'\x8c\xaa\rLs%7A'
p46
tp47
bsS'CS'
p48
F0.14795748096182493
sS'alpha'
p49
F0.050000000000000003
sS'true'
p50
g8
(g9
(I0
tp51
g11
tp52
Rp53
(I1
(I1
I1
tp54
g18
I00
S'\x00\x00\x00\xe0MbP?'
p55
tp56
bsS'pValue'
p57
g26
(g18
S'\xc8\x82\xefdtj\xe6?'
p58
tp59
Rp60
sbag1
(g2
g3
Ntp61
Rp62
(dp63
g7
g8
(g9
(I0
tp64
g11
tp65
Rp66
(I1
(I1
I1
tp67
g18
I00
S'\x1e\x16lM,\x99@?'
p68
tp69
bsg23
F11.497948239031347
sg24
F16.636485487029937
sg25
g34
sg35
I0
sg36
I01
sg37
F12.973146637317722
sg38
I2
sg39
g40
sg41
g8
(g9
(I0
tp70
g11
tp71
Rp72
(I1
(I1
I1
tp73
g18
I00
S'\xcd\xd71\xee\xe7\x03pA'
p74
tp75
bsg48
F2.9503967965727504
sg49
F0.050000000000000003
sg50
g8
(g9
(I0
tp76
g11
tp77
Rp78
(I1
(I1
I1
tp79
g18
I00
S'\x00\x00\x00\xe0MbP?'
p80
tp81
bsg57
g26
(g18
S'e)\x17\xa2\xb0\xfa\xb5?'
p82
tp83
Rp84
sbag1
(g2
g3
Ntp85
Rp86
(dp87
g7
g8
(g9
(I0
tp88
g11
tp89
Rp90
(I1
(I1
I1
tp91
g18
I00
S'\xe8h\x8b~g:S?'
p92
tp93
bsg23
F9.2401579401390119
sg24
F16.59986688933914
sg25
g34
sg35
I0
sg36
I01
sg37
F9.5228199442585542
sg38
I3
sg39
g40
sg41
g8
(g9
(I0
tp94
g11
tp95
Rp96
(I1
(I1
I1
tp97
g18
I00
S'\x9fl[=\xfa\xe0nA'
p98
tp99
bsg48
F0.56532400823908446
sg49
F0.050000000000000003
sg50
g8
(g9
(I0
tp100
g11
tp101
Rp102
(I1
(I1
I1
tp103
g18
I00
S'\x00\x00\x00\xe0MbP?'
p104
tp105
bsg57
g26
(g18
S'B\xf0wv\x95\xef\xdc?'
p106
tp107
Rp108
sbag1
(g2
g3
Ntp109
Rp110
(dp111
g7
g8
(g9
(I0
tp112
g11
tp113
Rp114
(I1
(I1
I1
tp115
g18
I00
S'(n}j\xa0YO?'
p116
tp117
bsg23
F14.727810597410834
sg24
F18.413536327500776
sg25
g34
sg35
I0
sg36
I01
sg37
F14.825109706735015
sg38
I4
sg39
g40
sg41
g8
(g9
(I0
tp118
g11
tp119
Rp120
(I1
(I1
I1
tp121
g18
I00
S'GL\xb0\xa1\x10\xac\x97A'
p122
tp123
bsg48
F0.19459821864836258
sg49
F0.050000000000000003
sg50
g8
(g9
(I0
tp124
g11
tp125
Rp126
(I1
(I1
I1
tp127
g18
I00
S'\x00\x00\x00\xe0MbP?'
p128
tp129
bsg57
g26
(g18
S'n*\xd3\x1d|\x17\xe5?'
p130
tp131
Rp132
sbag1
(g2
g3
Ntp133
Rp134
(dp135
g7
g8
(g9
(I0
tp136
g11
tp137
Rp138
(I1
(I1
I1
tp139
g18
I00
S'e*\xf7s\xcd\x89M?'
p140
tp141
bsg23
F9.7169077761344909
sg24
F17.759058779966097
sg25
g34
sg35
I0
sg36
I01
sg37
F9.9202070387309682
sg38
I5
sg39
g40
sg41
g8
(g9
(I0
tp142
g11
tp143
Rp144
(I1
(I1
I1
tp145
g18
I00
S'F\xf5\xc8\xcf\xfe\x9a\x88A'
p146
tp147
bsg48
F0.4065985251929547
sg49
F0.050000000000000003
sg50
g8
(g9
(I0
tp148
g11
tp149
Rp150
(I1
(I1
I1
tp151
g18
I00
S'\x00\x00\x00\xe0MbP?'
p152
tp153
bsg57
g26
(g18
S'\xf6]\x9c\xa8(\xc2\xe0?'
p154
tp155
Rp156
sbag1
(g2
g3
Ntp157
Rp158
(dp159
g7
g8
(g9
(I0
tp160
g11
tp161
Rp162
(I1
(I1
I1
tp163
g18
I00
S'\xbd\xe2\x8e\xa1\xe7\xc0Q?'
p164
tp165
bsg23
F13.03670203446076
sg24
F18.089564748262433
sg25
g34
sg35
I0
sg36
I01
sg37
F13.283246673408376
sg38
I6
sg39
g40
sg41
g8
(g9
(I0
tp166
g11
tp167
Rp168
(I1
(I1
I1
tp169
g18
I00
S'S4\x11j\x11\x1f\x91A'
p170
tp171
bsg48
F0.49308927789523338
sg49
F0.050000000000000003
sg50
g8
(g9
(I0
tp172
g11
tp173
Rp174
(I1
(I1
I1
tp175
g18
I00
S'\x00\x00\x00\xe0MbP?'
p176
tp177
bsg57
g26
(g18
S'\xa0\x0b\xed\xc6#\xe2\xde?'
p178
tp179
Rp180
sbag1
(g2
g3
Ntp181
Rp182
(dp183
g7
g8
(g9
(I0
tp184
g11
tp185
Rp186
(I1
(I1
I1
tp187
g18
I00
S'\xd3\x19m:\x8d\xaaR?'
p188
tp189
bsg23
F14.395496253075722
sg24
F18.002546241214976
sg25
g34
sg35
I0
sg36
I01
sg37
F15.081457503819509
sg38
I7
sg39
g40
sg41
g8
(g9
(I0
tp190
g11
tp191
Rp192
(I1
(I1
I1
tp193
g18
I00
S'\xd5IIB\x91c\x8fA'
p194
tp195
bsg48
F1.3719225014875747
sg49
F0.050000000000000003
sg50
g8
(g9
(I0
tp196
g11
tp197
Rp198
(I1
(I1
I1
tp199
g18
I00
S'\x00\x00\x00\xe0MbP?'
p200
tp201
bsg57
g26
(g18
S'\xd4\x178\x8b\xe0\xe8\xce?'
p202
tp203
Rp204
sbag1
(g2
g3
Ntp205
Rp206
(dp207
g7
g8
(g9
(I0
tp208
g11
tp209
Rp210
(I1
(I1
I1
tp211
g18
I00
S'\x18Fh\xf2%\x85c?'
p212
tp213
bsg23
F12.001570907233827
sg24
F13.44955069470962
sg25
g26
(g29
S'\x00'
p214
tp215
Rp216
sg35
I0
sg36
I01
sg37
F13.949181949311154
sg38
I8
sg39
g40
sg41
g8
(g9
(I0
tp217
g11
tp218
Rp219
(I1
(I1
I1
tp220
g18
I00
S'[V\xffE5*%A'
p221
tp222
bsg48
F3.8952220841546534
sg49
F0.050000000000000003
sg50
g8
(g9
(I0
tp223
g11
tp224
Rp225
(I1
(I1
I1
tp226
g18
I00
S'\x00\x00\x00\xe0MbP?'
p227
tp228
bsg57
g26
(g18
S'\xe2\x0c\x00\x9f\xfb\xca\xa8?'
p229
tp230
Rp231
sbag1
(g2
g3
Ntp232
Rp233
(dp234
g7
g8
(g9
(I0
tp235
g11
tp236
Rp237
(I1
(I1
I1
tp238
g18
I00
S'\xd28\xe4Hy\x83^?'
p239
tp240
bsg23
F10.640524642703877
sg24
F13.078748942372945
sg25
g34
sg35
I0
sg36
I01
sg37
F10.981832444304302
sg38
I9
sg39
g40
sg41
g8
(g9
(I0
tp241
g11
tp242
Rp243
(I1
(I1
I1
tp244
g18
I00
S'\xb9\xe09\xfe\x157\x1dA'
p245
tp246
bsg48
F0.68261560320085124
sg49
F0.050000000000000003
sg50
g8
(g9
(I0
tp247
g11
tp248
Rp249
(I1
(I1
I1
tp250
g18
I00
S'\x00\x00\x00\xe0MbP?'
p251
tp252
bsg57
g26
(g18
S"\x1er\x02\xa1\xef'\xda?"
p253
tp254
Rp255
sbag1
(g2
g3
Ntp256
Rp257
(dp258
g7
g8
(g9
(I0
tp259
g11
tp260
Rp261
(I1
(I1
I1
tp262
g18
I00
S'\xc4\x1b\xee\x9b\x0c>M?'
p263
tp264
bsg23
F12.293410859530333
sg24
F17.027081153545097
sg25
g34
sg35
I0
sg36
I01
sg37
F12.436209808820571
sg38
I10
sg39
g40
sg41
g8
(g9
(I0
tp265
g11
tp266
Rp267
(I1
(I1
I1
tp268
g18
I00
S'`\x00\x9e+\x17\xabwA'
p269
tp270
bsg48
F0.28559789858047679
sg49
F0.050000000000000003
sg50
g8
(g9
(I0
tp271
g11
tp272
Rp273
(I1
(I1
I1
tp274
g18
I00
S'\x00\x00\x00\xe0MbP?'
p275
tp276
bsg57
g26
(g18
S"O'\xd0VO\xfa\xe2?"
p277
tp278
Rp279
sbag1
(g2
g3
Ntp280
Rp281
(dp282
g7
g8
(g9
(I0
tp283
g11
tp284
Rp285
(I1
(I1
I1
tp286
g18
I00
S'\xea\x11\xc9WQYO?'
p287
tp288
bsg23
F11.342296932470676
sg24
F16.637316404777344
sg25
g34
sg35
I0
sg36
I01
sg37
F11.358791799017446
sg38
I11
sg39
g40
sg41
g8
(g9
(I0
tp289
g11
tp290
Rp291
(I1
(I1
I1
tp292
g18
I00
S'k\xe4ugP\x07pA'
p293
tp294
bsg48
F0.032989733093540252
sg49
F0.050000000000000003
sg50
g8
(g9
(I0
tp295
g11
tp296
Rp297
(I1
(I1
I1
tp298
g18
I00
S'\x00\x00\x00\xe0MbP?'
p299
tp300
bsg57
g26
(g18
S'\xd4^s\xbdNc\xeb?'
p301
tp302
Rp303
sbag1
(g2
g3
Ntp304
Rp305
(dp306
g7
g8
(g9
(I0
tp307
g11
tp308
Rp309
(I1
(I1
I1
tp310
g18
I00
S'RzI\xc15\xdc3?'
p311
tp312
bsg23
F10.23826623774467
sg24
F15.982840564548606
sg25
g34
sg35
I0
sg36
I01
sg37
F11.559167127720681
sg38
I12
sg39
g40
sg41
g8
(g9
(I0
tp313
g11
tp314
Rp315
(I1
(I1
I1
tp316
g18
I00
S'\x92EuU\x1a\xa9`A'
p317
tp318
bsg48
F2.6418017799520221
sg49
F0.050000000000000003
sg50
g8
(g9
(I0
tp319
g11
tp320
Rp321
(I1
(I1
I1
tp322
g18
I00
S'\x00\x00\x00\xe0MbP?'
p323
tp324
bsg57
g26
(g18
S'=5n\xe0W\xa5\xba?'
p325
tp326
Rp327
sbag1
(g2
g3
Ntp328
Rp329
(dp330
g7
g8
(g9
(I0
tp331
g11
tp332
Rp333
(I1
(I1
I1
tp334
g18
I00
S'+\x01\xed\xd8r\x05U?'
p335
tp336
bsg23
F10.302822568319925
sg24
F16.151450371867732
sg25
g34
sg35
I0
sg36
I01
sg37
F10.804149544951008
sg38
I13
sg39
g40
sg41
g8
(g9
(I0
tp337
g11
tp338
Rp339
(I1
(I1
I1
tp340
g18
I00
S'TAg\x88l\xb8cA'
p341
tp342
bsg48
F1.0026539532621648
sg49
F0.050000000000000003
sg50
g8
(g9
(I0
tp343
g11
tp344
Rp345
(I1
(I1
I1
tp346
g18
I00
S'\x00\x00\x00\xe0MbP?'
p347
tp348
bsg57
g26
(g18
S'\xa4\xad\xd3\xceND\xd4?'
p349
tp350
Rp351
sbag1
(g2
g3
Ntp352
Rp353
(dp354
g7
g8
(g9
(I0
tp355
g11
tp356
Rp357
(I1
(I1
I1
tp358
g18
I00
S'\xc3\n\xc5\x07\xe9\x8cF?'
p359
tp360
bsg23
F11.278434223260374
sg24
F16.432872261770129
sg25
g34
sg35
I0
sg36
I01
sg37
F11.826340119227735
sg38
I14
sg39
g40
sg41
g8
(g9
(I0
tp361
g11
tp362
Rp363
(I1
(I1
I1
tp364
g18
I00
S'X\xdf\x16\x8e9!jA'
p365
tp366
bsg48
F1.0958117919347217
sg49
F0.050000000000000003
sg50
g8
(g9
(I0
tp367
g11
tp368
Rp369
(I1
(I1
I1
tp370
g18
I00
S'\x00\x00\x00\xe0MbP?'
p371
tp372
bsg57
g26
(g18
S'\x8e_u[X\xe4\xd2?'
p373
tp374
Rp375
sbag1
(g2
g3
Ntp376
Rp377
(dp378
g7
g8
(g9
(I0
tp379
g11
tp380
Rp381
(I1
(I1
I1
tp382
g18
I00
S'\xaa\x19M\xaa\xb6JX?'
p383
tp384
bsg23
F10.328993640694522
sg24
F13.980391484595929
sg25
g34
sg35
I0
sg36
I01
sg37
F10.523655698263704
sg38
I15
sg39
g40
sg41
g8
(g9
(I0
tp385
g11
tp386
Rp387
(I1
(I1
I1
tp388
g18
I00
S'\xa0\xc5X\xb1t\xfe1A'
p389
tp390
bsg48
F0.38932411513836485
sg49
F0.050000000000000003
sg50
g8
(g9
(I0
tp391
g11
tp392
Rp393
(I1
(I1
I1
tp394
g18
I00
S'\x00\x00\x00\xe0MbP?'
p395
tp396
bsg57
g26
(g18
S'F\xcaXD\x82\x0b\xe1?'
p397
tp398
Rp399
sbag1
(g2
g3
Ntp400
Rp401
(dp402
g7
g8
(g9
(I0
tp403
g11
tp404
Rp405
(I1
(I1
I1
tp406
g18
I00
S'K\xcf\xb1\x97#UU?'
p407
tp408
bsg23
F11.73985773252892
sg24
F15.432563050574318
sg25
g34
sg35
I0
sg36
I01
sg37
F12.022976128344098
sg38
I16
sg39
g40
sg41
g8
(g9
(I0
tp409
g11
tp410
Rp411
(I1
(I1
I1
tp412
g18
I00
S'V\\W\x8e"8SA'
p413
tp414
bsg48
F0.5662367916303559
sg49
F0.050000000000000003
sg50
g8
(g9
(I0
tp415
g11
tp416
Rp417
(I1
(I1
I1
tp418
g18
I00
S'\x00\x00\x00\xe0MbP?'
p419
tp420
bsg57
g26
(g18
S'\x94l\x18<\x9b\xe9\xdc?'
p421
tp422
Rp423
sbag1
(g2
g3
Ntp424
Rp425
(dp426
g7
g8
(g9
(I0
tp427
g11
tp428
Rp429
(I1
(I1
I1
tp430
g18
I00
S'\x13\x08\xd3\xc7qfK?'
p431
tp432
bsg23
F10.163325907558145
sg24
F16.620642171909942
sg25
g34
sg35
I0
sg36
I01
sg37
F10.367474846007969
sg38
I17
sg39
g40
sg41
g8
(g9
(I0
tp433
g11
tp434
Rp435
(I1
(I1
I1
tp436
g18
I00
S'\xd7\xb0\xc5g\xec\x86oA'
p437
tp438
bsg48
F0.40829787689964903
sg49
F0.050000000000000003
sg50
g8
(g9
(I0
tp439
g11
tp440
Rp441
(I1
(I1
I1
tp442
g18
I00
S'\x00\x00\x00\xe0MbP?'
p443
tp444
bsg57
g26
(g18
S'\xf5[\x8b\xd7\x0f\xbb\xe0?'
p445
tp446
Rp447
sbag1
(g2
g3
Ntp448
Rp449
(dp450
g7
g8
(g9
(I0
tp451
g11
tp452
Rp453
(I1
(I1
I1
tp454
g18
I00
S'\xeb\xc1@\x06\xcb\xa3R?'
p455
tp456
bsg23
F11.211239869691848
sg24
F18.652696002046021
sg25
g34
sg35
I0
sg36
I01
sg37
F12.490948956645216
sg38
I18
sg39
g40
sg41
g8
(g9
(I0
tp457
g11
tp458
Rp459
(I1
(I1
I1
tp460
g18
I00
S'`\xd3\x80\xa4a\x11\x9eA'
p461
tp462
bsg48
F2.5594181739067352
sg49
F0.050000000000000003
sg50
g8
(g9
(I0
tp463
g11
tp464
Rp465
(I1
(I1
I1
tp466
g18
I00
S'\x00\x00\x00\xe0MbP?'
p467
tp468
bsg57
g26
(g18
S'\x00\xc4\xa5\xf5K\x11\xbc?'
p469
tp470
Rp471
sbag1
(g2
g3
Ntp472
Rp473
(dp474
g7
g8
(g9
(I0
tp475
g11
tp476
Rp477
(I1
(I1
I1
tp478
g18
I00
S'F\xa9\x1e\xf9>\x1fN?'
p479
tp480
bsg23
F11.068219516203412
sg24
F14.186155079256757
sg25
g34
sg35
I0
sg36
I01
sg37
F11.072339903622025
sg38
I19
sg39
g40
sg41
g8
(g9
(I0
tp481
g11
tp482
Rp483
(I1
(I1
I1
tp484
g18
I00
S'\xfe\xda\xde\x02\xdc\x1a6A'
p485
tp486
bsg48
F0.0082407748372261835
sg49
F0.050000000000000003
sg50
g8
(g9
(I0
tp487
g11
tp488
Rp489
(I1
(I1
I1
tp490
g18
I00
S'\x00\x00\x00\xe0MbP?'
p491
tp492
bsg57
g26
(g18
S'\x85\xb5\xfe\xb0u\xaf\xed?'
p493
tp494
Rp495
sbag1
(g2
g3
Ntp496
Rp497
(dp498
g7
g8
(g9
(I0
tp499
g11
tp500
Rp501
(I1
(I1
I1
tp502
g18
I00
S'\x16\x82\xe7\xfe\x9a\x81b?'
p503
tp504
bsg23
F13.06466554321792
sg24
F13.025723739908356
sg25
g34
sg35
I0
sg36
I01
sg37
F14.026082856756126
sg38
I20
sg39
g40
sg41
g8
(g9
(I0
tp505
g11
tp506
Rp507
(I1
(I1
I1
tp508
g18
I00
S'\x11}{:\xd6\xb4\x1bA'
p509
tp510
bsg48
F1.9228346270764121
sg49
F0.050000000000000003
sg50
g8
(g9
(I0
tp511
g11
tp512
Rp513
(I1
(I1
I1
tp514
g18
I00
S'\x00\x00\x00\xe0MbP?'
p515
tp516
bsg57
g26
(g18
S',\xf8\xbf\xfe\x8f0\xc5?'
p517
tp518
Rp519
sbag1
(g2
g3
Ntp520
Rp521
(dp522
g7
g8
(g9
(I0
tp523
g11
tp524
Rp525
(I1
(I1
I1
tp526
g18
I00
S'\xf2\xbcSX\x18ML?'
p527
tp528
bsg23
F13.162137049773921
sg24
F-15.819566805624106
sg25
g34
sg35
I0
sg36
I01
sg37
F13.209471443370379
sg38
I21
sg39
g40
sg41
g8
(g9
(I0
tp529
g11
tp530
Rp531
(I1
(I1
I1
tp532
g18
I00
S'\x00\x00\x00\xe0B\x17\x82>'
p533
tp534
bsg48
F0.094668787192915715
sg49
F0.050000000000000003
sg50
g8
(g9
(I0
tp535
g11
tp536
Rp537
(I1
(I1
I1
tp538
g18
I00
S'\x00\x00\x00\xe0MbP?'
p539
tp540
bsg57
g26
(g18
S'6\x08\xdd\xde/D\xe8?'
p541
tp542
Rp543
sbag1
(g2
g3
Ntp544
Rp545
(dp546
g7
g8
(g9
(I0
tp547
g11
tp548
Rp549
(I1
(I1
I1
tp550
g18
I00
S'8J\xdc#\xc7\xc6Q?'
p551
tp552
bsg23
F18.004132938995475
sg24
F17.079940671849702
sg25
g34
sg35
I0
sg36
I01
sg37
F18.097099660604638
sg38
I22
sg39
g40
sg41
g8
(g9
(I0
tp553
g11
tp554
Rp555
(I1
(I1
I1
tp556
g18
I00
S'\xf7\xe3\xf3\xb8\xfc\xf3xA'
p557
tp558
bsg48
F0.18593344321832461
sg49
F0.050000000000000003
sg50
g8
(g9
(I0
tp559
g11
tp560
Rp561
(I1
(I1
I1
tp562
g18
I00
S'\x00\x00\x00\xe0MbP?'
p563
tp564
bsg57
g26
(g18
S'\xca\xe7\x81\x82\x84R\xe5?'
p565
tp566
Rp567
sbag1
(g2
g3
Ntp568
Rp569
(dp570
g7
g8
(g9
(I0
tp571
g11
tp572
Rp573
(I1
(I1
I1
tp574
g18
I00
S'\x8a\x0f\xcb\x85\x92cO?'
p575
tp576
bsg23
F10.201355687994111
sg24
F16.390929287820537
sg25
g34
sg35
I0
sg36
I01
sg37
F10.213628520810513
sg38
I23
sg39
g40
sg41
g8
(g9
(I0
tp577
g11
tp578
Rp579
(I1
(I1
I1
tp580
g18
I00
S'\r\xae\x19\x19v\x0eiA'
p581
tp582
bsg48
F0.024545665632803804
sg49
F0.050000000000000003
sg50
g8
(g9
(I0
tp583
g11
tp584
Rp585
(I1
(I1
I1
tp586
g18
I00
S'\x00\x00\x00\xe0MbP?'
p587
tp588
bsg57
g26
(g18
S'\x9c<l\xfc!\x04\xec?'
p589
tp590
Rp591
sbag1
(g2
g3
Ntp592
Rp593
(dp594
g7
g8
(g9
(I0
tp595
g11
tp596
Rp597
(I1
(I1
I1
tp598
g18
I00
S'\xb6\x19\x1aK\xa2\xbcI?'
p599
tp600
bsg23
F18.52905603186359
sg24
F16.862114561409786
sg25
g34
sg35
I0
sg36
I01
sg37
F18.94481202764937
sg38
I24
sg39
g40
sg41
g8
(g9
(I0
tp601
g11
tp602
Rp603
(I1
(I1
I1
tp604
g18
I00
S'O\x90\x84\xe6\xa2\x11tA'
p605
tp606
bsg48
F0.83151199157155986
sg49
F0.050000000000000003
sg50
g8
(g9
(I0
tp607
g11
tp608
Rp609
(I1
(I1
I1
tp610
g18
I00
S'\x00\x00\x00\xe0MbP?'
p611
tp612
bsg57
g26
(g18
S'"Z`\xdcP(\xd7?'
p613
tp614
Rp615
sbag1
(g2
g3
Ntp616
Rp617
(dp618
g7
g8
(g9
(I0
tp619
g11
tp620
Rp621
(I1
(I1
I1
tp622
g18
I00
S'\\}\xe5\x91\xf7^\xe0?'
p623
tp624
bsg23
F15.369753495462959
sg24
F-11.466431725868651
sg25
g34
sg35
I0
sg36
I01
sg37
F16.927795379176874
sg38
I25
sg39
g40
sg41
g8
(g9
(I0
tp625
g11
tp626
Rp627
(I1
(I1
I1
tp628
g18
I00
S'\x0c\xbcn\xd26\xf8\xe5>'
p629
tp630
bsg48
F3.1160837674278312
sg49
F0.050000000000000003
sg50
g8
(g9
(I0
tp631
g11
tp632
Rp633
(I1
(I1
I1
tp634
g18
I00
S'\x00\x00\x00\xe0MbP?'
p635
tp636
bsg57
g26
(g18
S'\x9a\xbaRI\x8a\xd8\xb3?'
p637
tp638
Rp639
sbag1
(g2
g3
Ntp640
Rp641
(dp642
g7
g8
(g9
(I0
tp643
g11
tp644
Rp645
(I1
(I1
I1
tp646
g18
I00
S'H\x94c@\xd7BK?'
p647
tp648
bsg23
F13.38293625593897
sg24
F16.866170393324175
sg25
g34
sg35
I0
sg36
I01
sg37
F13.656089122068677
sg38
I26
sg39
g40
sg41
g8
(g9
(I0
tp649
g11
tp650
Rp651
(I1
(I1
I1
tp652
g18
I00
S'\xd1\xaf\xbc\x1a\x84&tA'
p653
tp654
bsg48
F0.54630573225941248
sg49
F0.050000000000000003
sg50
g8
(g9
(I0
tp655
g11
tp656
Rp657
(I1
(I1
I1
tp658
g18
I00
S'\x00\x00\x00\xe0MbP?'
p659
tp660
bsg57
g26
(g18
S'\xd6\x9a\x01x\xdfm\xdd?'
p661
tp662
Rp663
sbag1
(g2
g3
Ntp664
Rp665
(dp666
g7
g8
(g9
(I0
tp667
g11
tp668
Rp669
(I1
(I1
I1
tp670
g18
I00
S'6\x96\x15]7\x80G?'
p671
tp672
bsg23
F10.960105697438129
sg24
F17.459348565478788
sg25
g34
sg35
I0
sg36
I01
sg37
F12.249603342441436
sg38
I27
sg39
g40
sg41
g8
(g9
(I0
tp673
g11
tp674
Rp675
(I1
(I1
I1
tp676
g18
I00
S'\xb3\x98#S\xc3;\x82A'
p677
tp678
bsg48
F2.5789952900066133
sg49
F0.050000000000000003
sg50
g8
(g9
(I0
tp679
g11
tp680
Rp681
(I1
(I1
I1
tp682
g18
I00
S'\x00\x00\x00\xe0MbP?'
p683
tp684
bsg57
g26
(g18
S'\x92;\x8c\x0c\xeb\xb8\xbb?'
p685
tp686
Rp687
sbag1
(g2
g3
Ntp688
Rp689
(dp690
g7
g8
(g9
(I0
tp691
g11
tp692
Rp693
(I1
(I1
I1
tp694
g18
I00
S'0\xab\x86@M\x94L?'
p695
tp696
bsg23
F12.261799249845675
sg24
F17.319037903761373
sg25
g34
sg35
I0
sg36
I01
sg37
F12.523719770314738
sg38
I28
sg39
g40
sg41
g8
(g9
(I0
tp697
g11
tp698
Rp699
(I1
(I1
I1
tp700
g18
I00
S'\xfd\xd0\xd8=e\xb1\x7fA'
p701
tp702
bsg48
F0.52384104093812667
sg49
F0.050000000000000003
sg50
g8
(g9
(I0
tp703
g11
tp704
Rp705
(I1
(I1
I1
tp706
g18
I00
S'\x00\x00\x00\xe0MbP?'
p707
tp708
bsg57
g26
(g18
S'\xa0\x19\x85\x18\x80\x07\xde?'
p709
tp710
Rp711
sbag1
(g2
g3
Ntp712
Rp713
(dp714
g7
g8
(g9
(I0
tp715
g11
tp716
Rp717
(I1
(I1
I1
tp718
g18
I00
S'\x06G\n\x11\xe8\x18P?'
p719
tp720
bsg23
F11.018287015790175
sg24
F14.770872800693452
sg25
g34
sg35
I0
sg36
I01
sg37
F11.018832518889525
sg38
I29
sg39
g40
sg41
g8
(g9
(I0
tp721
g11
tp722
Rp723
(I1
(I1
I1
tp724
g18
I00
S'\xad\xe2-\r^\xd5CA'
p725
tp726
bsg48
F0.0010910061986990627
sg49
F0.050000000000000003
sg50
g8
(g9
(I0
tp727
g11
tp728
Rp729
(I1
(I1
I1
tp730
g18
I00
S'\x00\x00\x00\xe0MbP?'
p731
tp732
bsg57
g26
(g18
S'\xa5\xbc\x12\xcc$(\xef?'
p733
tp734
Rp735
sbag1
(g2
g3
Ntp736
Rp737
(dp738
g7
g8
(g9
(I0
tp739
g11
tp740
Rp741
(I1
(I1
I1
tp742
g18
I00
S'\xb2H\x1e4\x9exM?'
p743
tp744
bsg23
F14.911532081263898
sg24
F17.885684512475642
sg25
g34
sg35
I0
sg36
I01
sg37
F15.188555232513345
sg38
I30
sg39
g40
sg41
g8
(g9
(I0
tp745
g11
tp746
Rp747
(I1
(I1
I1
tp748
g18
I00
S'\xcbK\xcemO\xed\x8bA'
p749
tp750
bsg48
F0.55404630249889308
sg49
F0.050000000000000003
sg50
g8
(g9
(I0
tp751
g11
tp752
Rp753
(I1
(I1
I1
tp754
g18
I00
S'\x00\x00\x00\xe0MbP?'
p755
tp756
bsg57
g26
(g18
S'\xd8\xbb\xbe\xec\x10:\xdd?'
p757
tp758
Rp759
sbag1
(g2
g3
Ntp760
Rp761
(dp762
g7
g8
(g9
(I0
tp763
g11
tp764
Rp765
(I1
(I1
I1
tp766
g18
I00
S'\xe2\x9d\x1cER\xf1W?'
p767
tp768
bsg23
F12.374236814831882
sg24
F14.961888553931443
sg25
g34
sg35
I0
sg36
I01
sg37
F12.840564049894947
sg38
I31
sg39
g40
sg41
g8
(g9
(I0
tp769
g11
tp770
Rp771
(I1
(I1
I1
tp772
g18
I00
S'R\xcd\x7fN\x0b\x02HA'
p773
tp774
bsg48
F0.93265447012613123
sg49
F0.050000000000000003
sg50
g8
(g9
(I0
tp775
g11
tp776
Rp777
(I1
(I1
I1
tp778
g18
I00
S'\x00\x00\x00\xe0MbP?'
p779
tp780
bsg57
g26
(g18
S't\x86\xcc\xcf\x1bc\xd5?'
p781
tp782
Rp783
sbag1
(g2
g3
Ntp784
Rp785
(dp786
g7
g8
(g9
(I0
tp787
g11
tp788
Rp789
(I1
(I1
I1
tp790
g18
I00
S'gDr\x8f\x0b\xedR?'
p791
tp792
bsg23
F10.982899668444263
sg24
F17.136343324822352
sg25
g34
sg35
I0
sg36
I01
sg37
F11.35322354375481
sg38
I32
sg39
g40
sg41
g8
(g9
(I0
tp793
g11
tp794
Rp795
(I1
(I1
I1
tp796
g18
I00
S'\xbf\x08i,\xa4fzA'
p797
tp798
bsg48
F0.74064775062109334
sg49
F0.050000000000000003
sg50
g8
(g9
(I0
tp799
g11
tp800
Rp801
(I1
(I1
I1
tp802
g18
I00
S'\x00\x00\x00\xe0MbP?'
p803
tp804
bsg57
g26
(g18
S'r\xdc\xf33\xce\xec\xd8?'
p805
tp806
Rp807
sbag1
(g2
g3
Ntp808
Rp809
(dp810
g7
g8
(g9
(I0
tp811
g11
tp812
Rp813
(I1
(I1
I1
tp814
g18
I00
S'\xc7\xdc\xae\x90"2F?'
p815
tp816
bsg23
F10.515900421139198
sg24
F17.358757894108763
sg25
g34
sg35
I0
sg36
I01
sg37
F11.982457000264903
sg38
I33
sg39
g40
sg41
g8
(g9
(I0
tp817
g11
tp818
Rp819
(I1
(I1
I1
tp820
g18
I00
S'S\xa2R\x96\x12}\x80A'
p821
tp822
bsg48
F2.9331131582514089
sg49
F0.050000000000000003
sg50
g8
(g9
(I0
tp823
g11
tp824
Rp825
(I1
(I1
I1
tp826
g18
I00
S'\x00\x00\x00\xe0MbP?'
p827
tp828
bsg57
g26
(g18
S'\x02n\xdf\xe267\xb6?'
p829
tp830
Rp831
sbag1
(g2
g3
Ntp832
Rp833
(dp834
g7
g8
(g9
(I0
tp835
g11
tp836
Rp837
(I1
(I1
I1
tp838
g18
I00
S'\xaf3G4\xd72S?'
p839
tp840
bsg23
F11.609432259571488
sg24
F16.355761937426919
sg25
g34
sg35
I0
sg36
I01
sg37
F11.82541092838524
sg38
I34
sg39
g40
sg41
g8
(g9
(I0
tp841
g11
tp842
Rp843
(I1
(I1
I1
tp844
g18
I00
S'\x98\xc4\xf8X\xcd0hA'
p845
tp846
bsg48
F0.43195733762750521
sg49
F0.050000000000000003
sg50
g8
(g9
(I0
tp847
g11
tp848
Rp849
(I1
(I1
I1
tp850
g18
I00
S'\x00\x00\x00\xe0MbP?'
p851
tp852
bsg57
g26
(g18
S'/\xac\xea\xbc[Z\xe0?'
p853
tp854
Rp855
sbag1
(g2
g3
Ntp856
Rp857
(dp858
g7
g8
(g9
(I0
tp859
g11
tp860
Rp861
(I1
(I1
I1
tp862
g18
I00
S'\xf2\xad\xca\x03\xc4@M?'
p863
tp864
bsg23
F10.419661888483171
sg24
F17.571223664729001
sg25
g34
sg35
I0
sg36
I01
sg37
F10.664363119971366
sg38
I35
sg39
g40
sg41
g8
(g9
(I0
tp865
g11
tp866
Rp867
(I1
(I1
I1
tp868
g18
I00
S'\xce\x83\xeb\x05Md\x84A'
p869
tp870
bsg48
F0.48940246297638978
sg49
F0.050000000000000003
sg50
g8
(g9
(I0
tp871
g11
tp872
Rp873
(I1
(I1
I1
tp874
g18
I00
S'\x00\x00\x00\xe0MbP?'
p875
tp876
bsg57
g26
(g18
S'Bi\xe5\xb7\x08\xfd\xde?'
p877
tp878
Rp879
sbag1
(g2
g3
Ntp880
Rp881
(dp882
g7
g8
(g9
(I0
tp883
g11
tp884
Rp885
(I1
(I1
I1
tp886
g18
I00
S'\x94\x9d\xc4\xd6\xe1\xaeM?'
p887
tp888
bsg23
F15.16561500337216
sg24
F-11.077506979835073
sg25
g34
sg35
I0
sg36
I01
sg37
F15.191565470331224
sg38
I36
sg39
g40
sg41
g8
(g9
(I0
tp889
g11
tp890
Rp891
(I1
(I1
I1
tp892
g18
I00
S'\x00\x00\xb0\xec\xf64\xf0\xbe'
p893
tp894
bsg48
F0.051900933918126668
sg49
F0.050000000000000003
sg50
g8
(g9
(I0
tp895
g11
tp896
Rp897
(I1
(I1
I1
tp898
g18
I00
S'\x00\x00\x00\xe0MbP?'
p899
tp900
bsg57
g26
(g18
S'\xf3Z\xe1\xdd\xb3;\xea?'
p901
tp902
Rp903
sbag1
(g2
g3
Ntp904
Rp905
(dp906
g7
g8
(g9
(I0
tp907
g11
tp908
Rp909
(I1
(I1
I1
tp910
g18
I00
S'\xd2.\xe1\x10\x15\xb8S?'
p911
tp912
bsg23
F12.148026283094694
sg24
F16.936571304997688
sg25
g34
sg35
I0
sg36
I01
sg37
F12.686209132415204
sg38
I37
sg39
g40
sg41
g8
(g9
(I0
tp913
g11
tp914
Rp915
(I1
(I1
I1
tp916
g18
I00
S'\xab|~\xe7\xc4\x9euA'
p917
tp918
bsg48
F1.0763656986410197
sg49
F0.050000000000000003
sg50
g8
(g9
(I0
tp919
g11
tp920
Rp921
(I1
(I1
I1
tp922
g18
I00
S'\x00\x00\x00\xe0MbP?'
p923
tp924
bsg57
g26
(g18
S'\xd2\xff\x17`4+\xd3?'
p925
tp926
Rp927
sbag1
(g2
g3
Ntp928
Rp929
(dp930
g7
g8
(g9
(I0
tp931
g11
tp932
Rp933
(I1
(I1
I1
tp934
g18
I00
S'\xc2\x990}\xf6\xf41?'
p935
tp936
bsg23
F9.9678379663470889
sg24
F14.509958266574165
sg25
g34
sg35
I0
sg36
I01
sg37
F10.291358213151852
sg38
I38
sg39
g40
sg41
g8
(g9
(I0
tp937
g11
tp938
Rp939
(I1
(I1
I1
tp940
g18
I00
S'\x1fw\x8a\xbf\xaa\x8e>A'
p941
tp942
bsg48
F0.64704049360952709
sg49
F0.050000000000000003
sg50
g8
(g9
(I0
tp943
g11
tp944
Rp945
(I1
(I1
I1
tp946
g18
I00
S'\x00\x00\x00\xe0MbP?'
p947
tp948
bsg57
g26
(g18
S'\x80\x88)\xa4~\xf4\xda?'
p949
tp950
Rp951
sbag1
(g2
g3
Ntp952
Rp953
(dp954
g7
g8
(g9
(I0
tp955
g11
tp956
Rp957
(I1
(I1
I1
tp958
g18
I00
S'h\xf6\xa8\x9c\xb3e%?'
p959
tp960
bsg23
F9.9537441644056894
sg24
F14.53314859827492
sg25
g34
sg35
I0
sg36
I01
sg37
F10.361684688641503
sg38
I39
sg39
g40
sg41
g8
(g9
(I0
tp961
g11
tp962
Rp963
(I1
(I1
I1
tp964
g18
I00
S'\xbe0\xcar2F?A'
p965
tp966
bsg48
F0.81588104847162768
sg49
F0.050000000000000003
sg50
g8
(g9
(I0
tp967
g11
tp968
Rp969
(I1
(I1
I1
tp970
g18
I00
S'\x00\x00\x00\xe0MbP?'
p971
tp972
bsg57
g26
(g18
S'\x04*\x91V\xe3r\xd7?'
p973
tp974
Rp975
sbag1
(g2
g3
Ntp976
Rp977
(dp978
g7
g8
(g9
(I0
tp979
g11
tp980
Rp981
(I1
(I1
I1
tp982
g18
I00
S'&2\x84P\xe4>H?'
p983
tp984
bsg23
F10.444635946293999
sg24
F16.219063785283435
sg25
g34
sg35
I0
sg36
I01
sg37
F10.765765323766919
sg38
I40
sg39
g40
sg41
g8
(g9
(I0
tp985
g11
tp986
Rp987
(I1
(I1
I1
tp988
g18
I00
S'\xb7\xcd\xd2\xbc\x91\x19eA'
p989
tp990
bsg48
F0.64225875494583917
sg49
F0.050000000000000003
sg50
g8
(g9
(I0
tp991
g11
tp992
Rp993
(I1
(I1
I1
tp994
g18
I00
S'\x00\x00\x00\xe0MbP?'
p995
tp996
bsg57
g26
(g18
S'\x80\x0b\xa05\xb2\x10\xdb?'
p997
tp998
Rp999
sbag1
(g2
g3
Ntp1000
Rp1001
(dp1002
g7
g8
(g9
(I0
tp1003
g11
tp1004
Rp1005
(I1
(I1
I1
tp1006
g18
I00
S'\xe8^yx\xfa\x9fK?'
p1007
tp1008
bsg23
F12.460300219557807
sg24
F17.647496448805679
sg25
g34
sg35
I0
sg36
I01
sg37
F12.988285269301981
sg38
I41
sg39
g40
sg41
g8
(g9
(I0
tp1009
g11
tp1010
Rp1011
(I1
(I1
I1
tp1012
g18
I00
S'-T`\xc2\x0b\x02\x86A'
p1013
tp1014
bsg48
F1.0559700994883485
sg49
F0.050000000000000003
sg50
g8
(g9
(I0
tp1015
g11
tp1016
Rp1017
(I1
(I1
I1
tp1018
g18
I00
S'\x00\x00\x00\xe0MbP?'
p1019
tp1020
bsg57
g26
(g18
S'\x04\xf1\x89R\xf7v\xd3?'
p1021
tp1022
Rp1023
sbag1
(g2
g3
Ntp1024
Rp1025
(dp1026
g7
g8
(g9
(I0
tp1027
g11
tp1028
Rp1029
(I1
(I1
I1
tp1030
g18
I00
S'\xc4\xba\xae\xf4\x06MM?'
p1031
tp1032
bsg23
F10.765672202957784
sg24
F16.907341284626156
sg25
g34
sg35
I0
sg36
I01
sg37
F10.888524594453131
sg38
I42
sg39
g40
sg41
g8
(g9
(I0
tp1033
g11
tp1034
Rp1035
(I1
(I1
I1
tp1036
g18
I00
S'\xa3\xf3\x97MT\xfftA'
p1037
tp1038
bsg48
F0.24570478299069265
sg49
F0.050000000000000003
sg50
g8
(g9
(I0
tp1039
g11
tp1040
Rp1041
(I1
(I1
I1
tp1042
g18
I00
S'\x00\x00\x00\xe0MbP?'
p1043
tp1044
bsg57
g26
(g18
S'\x80\xf1`.\xfd\xd7\xe3?'
p1045
tp1046
Rp1047
sbag1
(g2
g3
Ntp1048
Rp1049
(dp1050
g7
g8
(g9
(I0
tp1051
g11
tp1052
Rp1053
(I1
(I1
I1
tp1054
g18
I00
S'\x1a,\x1b.\xb1\x93G?'
p1055
tp1056
bsg23
F13.079607170018168
sg24
F17.30863369780581
sg25
g34
sg35
I0
sg36
I01
sg37
F14.1727279066228
sg38
I43
sg39
g40
sg41
g8
(g9
(I0
tp1057
g11
tp1058
Rp1059
(I1
(I1
I1
tp1060
g18
I00
S'2H\xe9mk]\x7fA'
p1061
tp1062
bsg48
F2.1862414732092645
sg49
F0.050000000000000003
sg50
g8
(g9
(I0
tp1063
g11
tp1064
Rp1065
(I1
(I1
I1
tp1066
g18
I00
S'\x00\x00\x00\xe0MbP?'
p1067
tp1068
bsg57
g26
(g18
S'\xf7\xa5\x06 \xe7\xd2\xc1?'
p1069
tp1070
Rp1071
sbag1
(g2
g3
Ntp1072
Rp1073
(dp1074
g7
g8
(g9
(I0
tp1075
g11
tp1076
Rp1077
(I1
(I1
I1
tp1078
g18
I00
S'v\x10\xbfSL\xc1K?'
p1079
tp1080
bsg23
F9.2542797667851282
sg24
F15.692208089032247
sg25
g34
sg35
I0
sg36
I01
sg37
F9.3256326206323212
sg38
I44
sg39
g40
sg41
g8
(g9
(I0
tp1081
g11
tp1082
Rp1083
(I1
(I1
I1
tp1084
g18
I00
S';g\x17t\xce\xeaXA'
p1085
tp1086
bsg48
F0.14270570769438606
sg49
F0.050000000000000003
sg50
g8
(g9
(I0
tp1087
g11
tp1088
Rp1089
(I1
(I1
I1
tp1090
g18
I00
S'\x00\x00\x00\xe0MbP?'
p1091
tp1092
bsg57
g26
(g18
S'\x91\x9d}\xb9R\x94\xe6?'
p1093
tp1094
Rp1095
sbag1
(g2
g3
Ntp1096
Rp1097
(dp1098
g7
g8
(g9
(I0
tp1099
g11
tp1100
Rp1101
(I1
(I1
I1
tp1102
g18
I00
S'\xe3|\xbbfh\nL?'
p1103
tp1104
bsg23
F14.019311846553407
sg24
F17.655130998898805
sg25
g34
sg35
I0
sg36
I01
sg37
F14.47625770447485
sg38
I45
sg39
g40
sg41
g8
(g9
(I0
tp1105
g11
tp1106
Rp1107
(I1
(I1
I1
tp1108
g18
I00
S'\x19<\x00U9-\x86A'
p1109
tp1110
bsg48
F0.91389171584288675
sg49
F0.050000000000000003
sg50
g8
(g9
(I0
tp1111
g11
tp1112
Rp1113
(I1
(I1
I1
tp1114
g18
I00
S'\x00\x00\x00\xe0MbP?'
p1115
tp1116
bsg57
g26
(g18
S'\xe2\xc77\x1c\x8d\xb3\xd5?'
p1117
tp1118
Rp1119
sbag1
(g2
g3
Ntp1120
Rp1121
(dp1122
g7
g8
(g9
(I0
tp1123
g11
tp1124
Rp1125
(I1
(I1
I1
tp1126
g18
I00
S'\x80\xbcro\x7fr[?'
p1127
tp1128
bsg23
F11.288239049613184
sg24
F14.830341267504082
sg25
g34
sg35
I0
sg36
I01
sg37
F12.326371654152965
sg38
I46
sg39
g40
sg41
g8
(g9
(I0
tp1129
g11
tp1130
Rp1131
(I1
(I1
I1
tp1132
g18
I00
S'\xcd4\xc9&x\x0cEA'
p1133
tp1134
bsg48
F2.0762652090795619
sg49
F0.050000000000000003
sg50
g8
(g9
(I0
tp1135
g11
tp1136
Rp1137
(I1
(I1
I1
tp1138
g18
I00
S'\x00\x00\x00\xe0MbP?'
p1139
tp1140
bsg57
g26
(g18
S'\xf7\xe1,\xbaH&\xc3?'
p1141
tp1142
Rp1143
sbag1
(g2
g3
Ntp1144
Rp1145
(dp1146
g7
g8
(g9
(I0
tp1147
g11
tp1148
Rp1149
(I1
(I1
I1
tp1150
g18
I00
S'\x0eM\xee\x8f\xfe\xb9R?'
p1151
tp1152
bsg23
F10.881603501472078
sg24
F17.514455817706203
sg25
g34
sg35
I0
sg36
I01
sg37
F11.328673201930673
sg38
I47
sg39
g40
sg41
g8
(g9
(I0
tp1153
g11
tp1154
Rp1155
(I1
(I1
I1
tp1156
g18
I00
S'n&\x9a\xcb5D\x83A'
p1157
tp1158
bsg48
F0.89413940091719013
sg49
F0.050000000000000003
sg50
g8
(g9
(I0
tp1159
g11
tp1160
Rp1161
(I1
(I1
I1
tp1162
g18
I00
S'\x00\x00\x00\xe0MbP?'
p1163
tp1164
bsg57
g26
(g18
S'\x1a\xe3gB\xf6\t\xd6?'
p1165
tp1166
Rp1167
sbag1
(g2
g3
Ntp1168
Rp1169
(dp1170
g7
g8
(g9
(I0
tp1171
g11
tp1172
Rp1173
(I1
(I1
I1
tp1174
g18
I00
S'\xae\x8c\xfa\xc5P:R?'
p1175
tp1176
bsg23
F14.199697839375776
sg24
F17.737546526974203
sg25
g34
sg35
I0
sg36
I01
sg37
F14.526010796170992
sg38
I48
sg39
g40
sg41
g8
(g9
(I0
tp1177
g11
tp1178
Rp1179
(I1
(I1
I1
tp1180
g18
I00
S'\xfe/j\xd8\xef\x14\x88A'
p1181
tp1182
bsg48
F0.65262591359043043
sg49
F0.050000000000000003
sg50
g8
(g9
(I0
tp1183
g11
tp1184
Rp1185
(I1
(I1
I1
tp1186
g18
I00
S'\x00\x00\x00\xe0MbP?'
p1187
tp1188
bsg57
g26
(g18
S'\xdaT\xc4\x17\xc5\xd3\xda?'
p1189
tp1190
Rp1191
sbag1
(g2
g3
Ntp1192
Rp1193
(dp1194
g7
g8
(g9
(I0
tp1195
g11
tp1196
Rp1197
(I1
(I1
I1
tp1198
g18
I00
S'4*\x1b\xde\xa6\x7fZ?'
p1199
tp1200
bsg23
F12.075839566574613
sg24
F15.44415026529858
sg25
g34
sg35
I0
sg36
I01
sg37
F13.629672592723695
sg38
I49
sg39
g40
sg41
g8
(g9
(I0
tp1201
g11
tp1202
Rp1203
(I1
(I1
I1
tp1204
g18
I00
S'\xc0\x935+zqSA'
p1205
tp1206
bsg48
F3.1076660522981641
sg49
F0.050000000000000003
sg50
g8
(g9
(I0
tp1207
g11
tp1208
Rp1209
(I1
(I1
I1
tp1210
g18
I00
S'\x00\x00\x00\xe0MbP?'
p1211
tp1212
bsg57
g26
(g18
S'\x95\x8c\xbe\x06\xdd\xf2\xb3?'
p1213
tp1214
Rp1215
sbag1
(g2
g3
Ntp1216
Rp1217
(dp1218
g7
g8
(g9
(I0
tp1219
g11
tp1220
Rp1221
(I1
(I1
I1
tp1222
g18
I00
S'\x82}\rP\xa0\x96E?'
p1223
tp1224
bsg23
F12.667908856723454
sg24
F15.2854483652025
sg25
g34
sg35
I0
sg36
I01
sg37
F12.870591537114644
sg38
I50
sg39
g40
sg41
g8
(g9
(I0
tp1225
g11
tp1226
Rp1227
(I1
(I1
I1
tp1228
g18
I00
S'\x15V%*\t\x97PA'
p1229
tp1230
bsg48
F0.40536536078237972
sg49
F0.050000000000000003
sg50
g8
(g9
(I0
tp1231
g11
tp1232
Rp1233
(I1
(I1
I1
tp1234
g18
I00
S'\x00\x00\x00\xe0MbP?'
p1235
tp1236
bsg57
g26
(g18
S'%T\x11iR\xc7\xe0?'
p1237
tp1238
Rp1239
sbag1
(g2
g3
Ntp1240
Rp1241
(dp1242
g7
g8
(g9
(I0
tp1243
g11
tp1244
Rp1245
(I1
(I1
I1
tp1246
g18
I00
S'[\x95\t\x11>\xe9P?'
p1247
tp1248
bsg23
F15.522907932596443
sg24
F18.636383052582325
sg25
g34
sg35
I0
sg36
I01
sg37
F15.577911381821234
sg38
I51
sg39
g40
sg41
g8
(g9
(I0
tp1249
g11
tp1250
Rp1251
(I1
(I1
I1
tp1252
g18
I00
S'\xa1\x8chC\xd5\x94\x9dA'
p1253
tp1254
bsg48
F0.11000689844958345
sg49
F0.050000000000000003
sg50
g8
(g9
(I0
tp1255
g11
tp1256
Rp1257
(I1
(I1
I1
tp1258
g18
I00
S'\x00\x00\x00\xe0MbP?'
p1259
tp1260
bsg57
g26
(g18
S'\xcc-\xceH2\xaf\xe7?'
p1261
tp1262
Rp1263
sbag1
(g2
g3
Ntp1264
Rp1265
(dp1266
g7
g8
(g9
(I0
tp1267
g11
tp1268
Rp1269
(I1
(I1
I1
tp1270
g18
I00
S'e\xa1\xce\xc0\xed\xdcM?'
p1271
tp1272
bsg23
F12.254297914223807
sg24
F18.386544206857625
sg25
g34
sg35
I0
sg36
I01
sg37
F12.574547165888424
sg38
I52
sg39
g40
sg41
g8
(g9
(I0
tp1273
g11
tp1274
Rp1275
(I1
(I1
I1
tp1276
g18
I00
S'\xeb\x08P\xc8\xad\n\x97A'
p1277
tp1278
bsg48
F0.64049850332923342
sg49
F0.050000000000000003
sg50
g8
(g9
(I0
tp1279
g11
tp1280
Rp1281
(I1
(I1
I1
tp1282
g18
I00
S'\x00\x00\x00\xe0MbP?'
p1283
tp1284
bsg57
g26
(g18
S'\xdc\xd3K\xff\x1e\x1b\xdb?'
p1285
tp1286
Rp1287
sbag1
(g2
g3
Ntp1288
Rp1289
(dp1290
g7
g8
(g9
(I0
tp1291
g11
tp1292
Rp1293
(I1
(I1
I1
tp1294
g18
I00
S'(J\xcby\xd7\xd0=?'
p1295
tp1296
bsg23
F9.3019174478954341
sg24
F17.513255373427221
sg25
g216
sg35
I0
sg36
I01
sg37
F13.330300496817809
sg38
I53
sg39
g40
sg41
g8
(g9
(I0
tp1297
g11
tp1298
Rp1299
(I1
(I1
I1
tp1300
g18
I00
S'\x14/\x04\xf8J>\x83A'
p1301
tp1302
bsg48
F8.0567660978447506
sg49
F0.050000000000000003
sg50
g8
(g9
(I0
tp1303
g11
tp1304
Rp1305
(I1
(I1
I1
tp1306
g18
I00
S'\x00\x00\x00\xe0MbP?'
p1307
tp1308
bsg57
g26
(g18
S'\x05\xa2\x89\x16\x9e\x91r?'
p1309
tp1310
Rp1311
sbag1
(g2
g3
Ntp1312
Rp1313
(dp1314
g7
g8
(g9
(I0
tp1315
g11
tp1316
Rp1317
(I1
(I1
I1
tp1318
g18
I00
S'\x81\xe6\xd7:;\xd7J?'
p1319
tp1320
bsg23
F12.487464356291881
sg24
F14.638571475355496
sg25
g34
sg35
I0
sg36
I01
sg37
F12.521014243947855
sg38
I54
sg39
g40
sg41
g8
(g9
(I0
tp1321
g11
tp1322
Rp1323
(I1
(I1
I1
tp1324
g18
I00
S'\xdc\xbe\x0b&*`AA'
p1325
tp1326
bsg48
F0.067099775311948662
sg49
F0.050000000000000003
sg50
g8
(g9
(I0
tp1327
g11
tp1328
Rp1329
(I1
(I1
I1
tp1330
g18
I00
S'\x00\x00\x00\xe0MbP?'
p1331
tp1332
bsg57
g26
(g18
S'\x04 &d\x9du\xe9?'
p1333
tp1334
Rp1335
sbag1
(g2
g3
Ntp1336
Rp1337
(dp1338
g7
g8
(g9
(I0
tp1339
g11
tp1340
Rp1341
(I1
(I1
I1
tp1342
g18
I00
S'D\x02\xfcLy\xfdT?'
p1343
tp1344
bsg23
F11.032970721217879
sg24
F17.274937602080115
sg25
g34
sg35
I0
sg36
I01
sg37
F12.55162077333514
sg38
I55
sg39
g40
sg41
g8
(g9
(I0
tp1345
g11
tp1346
Rp1347
(I1
(I1
I1
tp1348
g18
I00
S'L\xdd1\x00^S~A'
p1349
tp1350
bsg48
F3.0373001042345216
sg49
F0.050000000000000003
sg50
g8
(g9
(I0
tp1351
g11
tp1352
Rp1353
(I1
(I1
I1
tp1354
g18
I00
S'\x00\x00\x00\xe0MbP?'
p1355
tp1356
bsg57
g26
(g18
S'}\x9f\xf5[\xbd\xd4\xb4?'
p1357
tp1358
Rp1359
sbag1
(g2
g3
Ntp1360
Rp1361
(dp1362
g7
g8
(g9
(I0
tp1363
g11
tp1364
Rp1365
(I1
(I1
I1
tp1366
g18
I00
S'\xeb\xd2\x19\xf7\xf2gR?'
p1367
tp1368
bsg23
F13.778751935622379
sg24
F17.808656363957621
sg25
g34
sg35
I0
sg36
I01
sg37
F14.208472567417948
sg38
I56
sg39
g40
sg41
g8
(g9
(I0
tp1369
g11
tp1370
Rp1371
(I1
(I1
I1
tp1372
g18
I00
S'!\xdep\x9aI\xdb\x89A'
p1373
tp1374
bsg48
F0.85944126359113682
sg49
F0.050000000000000003
sg50
g8
(g9
(I0
tp1375
g11
tp1376
Rp1377
(I1
(I1
I1
tp1378
g18
I00
S'\x00\x00\x00\xe0MbP?'
p1379
tp1380
bsg57
g26
(g18
S'\xb4w1\x9f7\xa6\xd6?'
p1381
tp1382
Rp1383
sbag1
(g2
g3
Ntp1384
Rp1385
(dp1386
g7
g8
(g9
(I0
tp1387
g11
tp1388
Rp1389
(I1
(I1
I1
tp1390
g18
I00
S'\x97\xe8E\x94\xe5\xc7J?'
p1391
tp1392
bsg23
F12.647287607226684
sg24
F16.143060543102322
sg25
g34
sg35
I0
sg36
I01
sg37
F12.800971348526813
sg38
I57
sg39
g40
sg41
g8
(g9
(I0
tp1393
g11
tp1394
Rp1395
(I1
(I1
I1
tp1396
g18
I00
S'\xcc_\xda\xe7>\x8ecA'
p1397
tp1398
bsg48
F0.30736748260025948
sg49
F0.050000000000000003
sg50
g8
(g9
(I0
tp1399
g11
tp1400
Rp1401
(I1
(I1
I1
tp1402
g18
I00
S'\x00\x00\x00\xe0MbP?'
p1403
tp1404
bsg57
g26
(g18
S'\xd0\xf4kd\xa0\x89\xe2?'
p1405
tp1406
Rp1407
sbag1
(g2
g3
Ntp1408
Rp1409
(dp1410
g7
g8
(g9
(I0
tp1411
g11
tp1412
Rp1413
(I1
(I1
I1
tp1414
g18
I00
S'\xaab1JA\x81Q?'
p1415
tp1416
bsg23
F12.75162827318403
sg24
F16.539270467154019
sg25
g34
sg35
I0
sg36
I01
sg37
F12.786518408386328
sg38
I58
sg39
g40
sg41
g8
(g9
(I0
tp1417
g11
tp1418
Rp1419
(I1
(I1
I1
tp1420
g18
I00
S'd\x89\rJ0\x10mA'
p1421
tp1422
bsg48
F0.069780270404596223
sg49
F0.050000000000000003
sg50
g8
(g9
(I0
tp1423
g11
tp1424
Rp1425
(I1
(I1
I1
tp1426
g18
I00
S'\x00\x00\x00\xe0MbP?'
p1427
tp1428
bsg57
g26
(g18
S'\xbe\x08%\x02AU\xe9?'
p1429
tp1430
Rp1431
sbag1
(g2
g3
Ntp1432
Rp1433
(dp1434
g7
g8
(g9
(I0
tp1435
g11
tp1436
Rp1437
(I1
(I1
I1
tp1438
g18
I00
S'z\x7f\xc9\x95\xa9\x87U?'
p1439
tp1440
bsg23
F14.860149855537381
sg24
F17.841651624527799
sg25
g216
sg35
I0
sg36
I01
sg37
F18.304841925314328
sg38
I59
sg39
g40
sg41
g8
(g9
(I0
tp1441
g11
tp1442
Rp1443
(I1
(I1
I1
tp1444
g18
I00
S'\xe4D\xfc\xf3U\xb9\x8aA'
p1445
tp1446
bsg48
F6.8893841395538935
sg49
F0.050000000000000003
sg50
g8
(g9
(I0
tp1447
g11
tp1448
Rp1449
(I1
(I1
I1
tp1450
g18
I00
S'\x00\x00\x00\xe0MbP?'
p1451
tp1452
bsg57
g26
(g18
S'@\x95\xf9U\x0e\xc2\x81?'
p1453
tp1454
Rp1455
sbag1
(g2
g3
Ntp1456
Rp1457
(dp1458
g7
g8
(g9
(I0
tp1459
g11
tp1460
Rp1461
(I1
(I1
I1
tp1462
g18
I00
S'\xab\x86q=6OU?'
p1463
tp1464
bsg23
F12.572699005623644
sg24
F16.190900628185737
sg25
g34
sg35
I0
sg36
I01
sg37
F13.170809131372369
sg38
I60
sg39
g40
sg41
g8
(g9
(I0
tp1465
g11
tp1466
Rp1467
(I1
(I1
I1
tp1468
g18
I00
S'\xda\x17\xef\xf4\x90\x83dA'
p1469
tp1470
bsg48
F1.1962202514974507
sg49
F0.050000000000000003
sg50
g8
(g9
(I0
tp1471
g11
tp1472
Rp1473
(I1
(I1
I1
tp1474
g18
I00
S'\x00\x00\x00\xe0MbP?'
p1475
tp1476
bsg57
g26
(g18
S'2\xbd\x0eK\x80\x8a\xd1?'
p1477
tp1478
Rp1479
sbag1
(g2
g3
Ntp1480
Rp1481
(dp1482
g7
g8
(g9
(I0
tp1483
g11
tp1484
Rp1485
(I1
(I1
I1
tp1486
g18
I00
S'\xaa\x1f\x08+\x15\xd9N?'
p1487
tp1488
bsg23
F11.491366335983605
sg24
F17.524412841522015
sg25
g34
sg35
I0
sg36
I01
sg37
F11.558720513464992
sg38
I61
sg39
g40
sg41
g8
(g9
(I0
tp1489
g11
tp1490
Rp1491
(I1
(I1
I1
tp1492
g18
I00
S'\xa3\x1c\xe5\xc9\x90u\x83A'
p1493
tp1494
bsg48
F0.13470835496277545
sg49
F0.050000000000000003
sg50
g8
(g9
(I0
tp1495
g11
tp1496
Rp1497
(I1
(I1
I1
tp1498
g18
I00
S'\x00\x00\x00\xe0MbP?'
p1499
tp1500
bsg57
g26
(g18
S'\xc2\xd5\x91M\xce\xd5\xe6?'
p1501
tp1502
Rp1503
sbag1
(g2
g3
Ntp1504
Rp1505
(dp1506
g7
g8
(g9
(I0
tp1507
g11
tp1508
Rp1509
(I1
(I1
I1
tp1510
g18
I00
S'{))\xdc\xeb\xbeT?'
p1511
tp1512
bsg23
F9.5674541921550986
sg24
F16.272196509101068
sg25
g34
sg35
I0
sg36
I01
sg37
F10.060234488516386
sg38
I62
sg39
g40
sg41
g8
(g9
(I0
tp1513
g11
tp1514
Rp1515
(I1
(I1
I1
tp1516
g18
I00
S'\x86|\xb3\xadT@fA'
p1517
tp1518
bsg48
F0.98556059272257457
sg49
F0.050000000000000003
sg50
g8
(g9
(I0
tp1519
g11
tp1520
Rp1521
(I1
(I1
I1
tp1522
g18
I00
S'\x00\x00\x00\xe0MbP?'
p1523
tp1524
bsg57
g26
(g18
S'&bG\xd7y\x88\xd4?'
p1525
tp1526
Rp1527
sbag1
(g2
g3
Ntp1528
Rp1529
(dp1530
g7
g8
(g9
(I0
tp1531
g11
tp1532
Rp1533
(I1
(I1
I1
tp1534
g18
I00
S'\xd1\xafI\xa9i\xebZ?'
p1535
tp1536
bsg23
F10.108144613392559
sg24
F12.981068085427738
sg25
g34
sg35
I0
sg36
I01
sg37
F10.252034433906653
sg38
I63
sg39
g40
sg41
g8
(g9
(I0
tp1537
g11
tp1538
Rp1539
(I1
(I1
I1
tp1540
g18
I00
S'--\x84\xc8\x11\x7f\x1aA'
p1541
tp1542
bsg48
F0.28777964102818743
sg49
F0.050000000000000003
sg50
g8
(g9
(I0
tp1543
g11
tp1544
Rp1545
(I1
(I1
I1
tp1546
g18
I00
S'\x00\x00\x00\xe0MbP?'
p1547
tp1548
bsg57
g26
(g18
S'\xc2q\x81\x82\xc5\xee\xe2?'
p1549
tp1550
Rp1551
sbag1
(g2
g3
Ntp1552
Rp1553
(dp1554
g7
g8
(g9
(I0
tp1555
g11
tp1556
Rp1557
(I1
(I1
I1
tp1558
g18
I00
S'\x1b\x89\x1c\xe8\xf6%N?'
p1559
tp1560
bsg23
F11.645153547590425
sg24
F18.096626721813109
sg25
g34
sg35
I0
sg36
I01
sg37
F11.847057377501589
sg38
I64
sg39
g40
sg41
g8
(g9
(I0
tp1561
g11
tp1562
Rp1563
(I1
(I1
I1
tp1564
g18
I00
S'K\x92\xc3t!>\x91A'
p1565
tp1566
bsg48
F0.40380765982232703
sg49
F0.050000000000000003
sg50
g8
(g9
(I0
tp1567
g11
tp1568
Rp1569
(I1
(I1
I1
tp1570
g18
I00
S'\x00\x00\x00\xe0MbP?'
p1571
tp1572
bsg57
g26
(g18
S'\x89X\x9f\x0e\xdc\xcd\xe0?'
p1573
tp1574
Rp1575
sbag1
(g2
g3
Ntp1576
Rp1577
(dp1578
g7
g8
(g9
(I0
tp1579
g11
tp1580
Rp1581
(I1
(I1
I1
tp1582
g18
I00
S'\xca4\x9a&`\x9eQ?'
p1583
tp1584
bsg23
F9.5791664903191709
sg24
F14.512708952041759
sg25
g34
sg35
I0
sg36
I01
sg37
F9.5847459032187636
sg38
I65
sg39
g40
sg41
g8
(g9
(I0
tp1585
g11
tp1586
Rp1587
(I1
(I1
I1
tp1588
g18
I00
S'\x8e\xa8\x8e\xdc6\xa4>A'
p1589
tp1590
bsg48
F0.011158825799185479
sg49
F0.050000000000000003
sg50
g8
(g9
(I0
tp1591
g11
tp1592
Rp1593
(I1
(I1
I1
tp1594
g18
I00
S'\x00\x00\x00\xe0MbP?'
p1595
tp1596
bsg57
g26
(g18
S'\x9d\xf3\xf3 \xd2N\xed?'
p1597
tp1598
Rp1599
sbag1
(g2
g3
Ntp1600
Rp1601
(dp1602
g7
g8
(g9
(I0
tp1603
g11
tp1604
Rp1605
(I1
(I1
I1
tp1606
g18
I00
S'\xf1w\xa4\x84|nX?'
p1607
tp1608
bsg23
F11.810042920842273
sg24
F14.901221912283509
sg25
g34
sg35
I0
sg36
I01
sg37
F12.319630322174685
sg38
I66
sg39
g40
sg41
g8
(g9
(I0
tp1609
g11
tp1610
Rp1611
(I1
(I1
I1
tp1612
g18
I00
S'\x08,\x95\xe3D\x98FA'
p1613
tp1614
bsg48
F1.0191748026648249
sg49
F0.050000000000000003
sg50
g8
(g9
(I0
tp1615
g11
tp1616
Rp1617
(I1
(I1
I1
tp1618
g18
I00
S'\x00\x00\x00\xe0MbP?'
p1619
tp1620
bsg57
g26
(g18
S'\n\x92\x16\x0e\x85\x03\xd4?'
p1621
tp1622
Rp1623
sbag1
(g2
g3
Ntp1624
Rp1625
(dp1626
g7
g8
(g9
(I0
tp1627
g11
tp1628
Rp1629
(I1
(I1
I1
tp1630
g18
I00
S'Z\x80\x83\x07_\xefK?'
p1631
tp1632
bsg23
F13.579772628978731
sg24
F18.285147911673459
sg25
g34
sg35
I0
sg36
I01
sg37
F14.47280300548208
sg38
I67
sg39
g40
sg41
g8
(g9
(I0
tp1633
g11
tp1634
Rp1635
(I1
(I1
I1
tp1636
g18
I00
S'\x93a\xa9\xe4\xe5\xd1\x94A'
p1637
tp1638
bsg48
F1.7860607530066979
sg49
F0.050000000000000003
sg50
g8
(g9
(I0
tp1639
g11
tp1640
Rp1641
(I1
(I1
I1
tp1642
g18
I00
S'\x00\x00\x00\xe0MbP?'
p1643
tp1644
bsg57
g26
(g18
S'\x18\x18j\x06W8\xc7?'
p1645
tp1646
Rp1647
sbag1
(g2
g3
Ntp1648
Rp1649
(dp1650
g7
g8
(g9
(I0
tp1651
g11
tp1652
Rp1653
(I1
(I1
I1
tp1654
g18
I00
S'R\xd8`$QXS?'
p1655
tp1656
bsg23
F11.698149007178406
sg24
F-12.072412771978271
sg25
g34
sg35
I0
sg36
I01
sg37
F11.921077704087132
sg38
I68
sg39
g40
sg41
g8
(g9
(I0
tp1657
g11
tp1658
Rp1659
(I1
(I1
I1
tp1660
g18
I00
S'\x00\x00\x00\xb8t\xf8\xd7>'
p1661
tp1662
bsg48
F0.44585739381745171
sg49
F0.050000000000000003
sg50
g8
(g9
(I0
tp1663
g11
tp1664
Rp1665
(I1
(I1
I1
tp1666
g18
I00
S'\x00\x00\x00\xe0MbP?'
p1667
tp1668
bsg57
g26
(g18
S'8\x9fI8L#\xe0?'
p1669
tp1670
Rp1671
sbag1
(g2
g3
Ntp1672
Rp1673
(dp1674
g7
g8
(g9
(I0
tp1675
g11
tp1676
Rp1677
(I1
(I1
I1
tp1678
g18
I00
S'\x95\x82\xaa\x97\xb3\x04Q?'
p1679
tp1680
bsg23
F12.032328406342103
sg24
F16.20886288428493
sg25
g34
sg35
I0
sg36
I01
sg37
F12.039849549316589
sg38
I69
sg39
g40
sg41
g8
(g9
(I0
tp1681
g11
tp1682
Rp1683
(I1
(I1
I1
tp1684
g18
I00
S'm\x88\xb2\x9d\xbf\xe2dA'
p1685
tp1686
bsg48
F0.015042285948972278
sg49
F0.050000000000000003
sg50
g8
(g9
(I0
tp1687
g11
tp1688
Rp1689
(I1
(I1
I1
tp1690
g18
I00
S'\x00\x00\x00\xe0MbP?'
p1691
tp1692
bsg57
g26
(g18
S'JG\xb8\xf0Y\xe0\xec?'
p1693
tp1694
Rp1695
sbag1
(g2
g3
Ntp1696
Rp1697
(dp1698
g7
g8
(g9
(I0
tp1699
g11
tp1700
Rp1701
(I1
(I1
I1
tp1702
g18
I00
S'\xce\xe6t\xd3\x06\nH?'
p1703
tp1704
bsg23
F12.174025819688239
sg24
F17.253850047221274
sg25
g34
sg35
I0
sg36
I01
sg37
F13.042936255973119
sg38
I70
sg39
g40
sg41
g8
(g9
(I0
tp1705
g11
tp1706
Rp1707
(I1
(I1
I1
tp1708
g18
I00
S'\xc3\xca\xc7\xed^\xb1}A'
p1709
tp1710
bsg48
F1.7378208725697597
sg49
F0.050000000000000003
sg50
g8
(g9
(I0
tp1711
g11
tp1712
Rp1713
(I1
(I1
I1
tp1714
g18
I00
S'\x00\x00\x00\xe0MbP?'
p1715
tp1716
bsg57
g26
(g18
S'\xc0\xcb\xb7l8\xfd\xc7?'
p1717
tp1718
Rp1719
sbag1
(g2
g3
Ntp1720
Rp1721
(dp1722
g7
g8
(g9
(I0
tp1723
g11
tp1724
Rp1725
(I1
(I1
I1
tp1726
g18
I00
S'\xd2.\xe1\x10\x15\xb8S?'
p1727
tp1728
bsg23
F9.24606522361983
sg24
F17.029896445808227
sg25
g34
sg35
I0
sg36
I01
sg37
F9.8624563756528687
sg38
I71
sg39
g40
sg41
g8
(g9
(I0
tp1729
g11
tp1730
Rp1731
(I1
(I1
I1
tp1732
g18
I00
S'3\xd3\x113,\xbcwA'
p1733
tp1734
bsg48
F1.2327823040660775
sg49
F0.050000000000000003
sg50
g8
(g9
(I0
tp1735
g11
tp1736
Rp1737
(I1
(I1
I1
tp1738
g18
I00
S'\x00\x00\x00\xe0MbP?'
p1739
tp1740
bsg57
g26
(g18
S'v\xfc\xac\xc3W\x14\xd1?'
p1741
tp1742
Rp1743
sbag1
(g2
g3
Ntp1744
Rp1745
(dp1746
g7
g8
(g9
(I0
tp1747
g11
tp1748
Rp1749
(I1
(I1
I1
tp1750
g18
I00
S'\xeax5\x88uJT?'
p1751
tp1752
bsg23
F12.030761817971804
sg24
F16.456152639493027
sg25
g34
sg35
I0
sg36
I01
sg37
F12.493844952204203
sg38
I72
sg39
g40
sg41
g8
(g9
(I0
tp1753
g11
tp1754
Rp1755
(I1
(I1
I1
tp1756
g18
I00
S'\x89\x7f\xb7\x83\xc7\xbejA'
p1757
tp1758
bsg48
F0.92616626846479733
sg49
F0.050000000000000003
sg50
g8
(g9
(I0
tp1759
g11
tp1760
Rp1761
(I1
(I1
I1
tp1762
g18
I00
S'\x00\x00\x00\xe0MbP?'
p1763
tp1764
bsg57
g26
(g18
S'\xfc\xe1\x9f\x91\xbf~\xd5?'
p1765
tp1766
Rp1767
sbag1
(g2
g3
Ntp1768
Rp1769
(dp1770
g7
g8
(g9
(I0
tp1771
g11
tp1772
Rp1773
(I1
(I1
I1
tp1774
g18
I00
S'\xe9\xeeG\x0b6|R?'
p1775
tp1776
bsg23
F9.4036323269943285
sg24
F17.429131360860701
sg25
g34
sg35
I0
sg36
I01
sg37
F9.7240827007763517
sg38
I73
sg39
g40
sg41
g8
(g9
(I0
tp1777
g11
tp1778
Rp1779
(I1
(I1
I1
tp1780
g18
I00
S'Nx\xb8q\xd3\xb0\x81A'
p1781
tp1782
bsg48
F0.64090074756404647
sg49
F0.050000000000000003
sg50
g8
(g9
(I0
tp1783
g11
tp1784
Rp1785
(I1
(I1
I1
tp1786
g18
I00
S'\x00\x00\x00\xe0MbP?'
p1787
tp1788
bsg57
g26
(g18
S'\xdeU\xd0\x9b\xbc\x18\xdb?'
p1789
tp1790
Rp1791
sbag1
(g2
g3
Ntp1792
Rp1793
(dp1794
g7
g8
(g9
(I0
tp1795
g11
tp1796
Rp1797
(I1
(I1
I1
tp1798
g18
I00
S'\x1dK)\xa8\xb1\x94J?'
p1799
tp1800
bsg23
F9.6897599616832082
sg24
F17.448392834527464
sg25
g34
sg35
I0
sg36
I01
sg37
F10.289913527387744
sg38
I74
sg39
g40
sg41
g8
(g9
(I0
tp1801
g11
tp1802
Rp1803
(I1
(I1
I1
tp1804
g18
I00
S'RR{A\xe7\x08\x82A'
p1805
tp1806
bsg48
F1.2003071314090725
sg49
F0.050000000000000003
sg50
g8
(g9
(I0
tp1807
g11
tp1808
Rp1809
(I1
(I1
I1
tp1810
g18
I00
S'\x00\x00\x00\xe0MbP?'
p1811
tp1812
bsg57
g26
(g18
S'\xcaoN\xc6\x18}\xd1?'
p1813
tp1814
Rp1815
sbag1
(g2
g3
Ntp1816
Rp1817
(dp1818
g7
g8
(g9
(I0
tp1819
g11
tp1820
Rp1821
(I1
(I1
I1
tp1822
g18
I00
S'\xc5\xe2\x06\xb2o\xfcE?'
p1823
tp1824
bsg23
F8.8910205822091104
sg24
F14.13324025595686
sg25
g34
sg35
I0
sg36
I01
sg37
F8.9513003840302847
sg38
I75
sg39
g40
sg41
g8
(g9
(I0
tp1825
g11
tp1826
Rp1827
(I1
(I1
I1
tp1828
g18
I00
S'\xb5\xb0\x94\xd04\xf74A'
p1829
tp1830
bsg48
F0.12055960364234863
sg49
F0.050000000000000003
sg50
g8
(g9
(I0
tp1831
g11
tp1832
Rp1833
(I1
(I1
I1
tp1834
g18
I00
S'\x00\x00\x00\xe0MbP?'
p1835
tp1836
bsg57
g26
(g18
S'I_\xf3\xf5HO\xe7?'
p1837
tp1838
Rp1839
sbag1
(g2
g3
Ntp1840
Rp1841
(dp1842
g7
g8
(g9
(I0
tp1843
g11
tp1844
Rp1845
(I1
(I1
I1
tp1846
g18
I00
S'p{\xdf\xd7.\x0b[?'
p1847
tp1848
bsg23
F9.9428485137977898
sg24
F14.773682182950502
sg25
g34
sg35
I0
sg36
I01
sg37
F10.84379988561259
sg38
I76
sg39
g40
sg41
g8
(g9
(I0
tp1849
g11
tp1850
Rp1851
(I1
(I1
I1
tp1852
g18
I00
S'\x0bky\xd6\xa6\xe3CA'
p1853
tp1854
bsg48
F1.8019027436296007
sg49
F0.050000000000000003
sg50
g8
(g9
(I0
tp1855
g11
tp1856
Rp1857
(I1
(I1
I1
tp1858
g18
I00
S'\x00\x00\x00\xe0MbP?'
p1859
tp1860
bsg57
g26
(g18
S'\x9c\xa4\x87rI\xf9\xc6?'
p1861
tp1862
Rp1863
sbag1
(g2
g3
Ntp1864
Rp1865
(dp1866
g7
g8
(g9
(I0
tp1867
g11
tp1868
Rp1869
(I1
(I1
I1
tp1870
g18
I00
S'T\r\xd7<\x94\x0cQ?'
p1871
tp1872
bsg23
F11.761108859873991
sg24
F17.330979728250902
sg25
g34
sg35
I0
sg36
I01
sg37
F11.786913895004936
sg38
I77
sg39
g40
sg41
g8
(g9
(I0
tp1873
g11
tp1874
Rp1875
(I1
(I1
I1
tp1876
g18
I00
S'\x04&\xc0\xb9n\t\x80A'
p1877
tp1878
bsg48
F0.051610070261890684
sg49
F0.050000000000000003
sg50
g8
(g9
(I0
tp1879
g11
tp1880
Rp1881
(I1
(I1
I1
tp1882
g18
I00
S'\x00\x00\x00\xe0MbP?'
p1883
tp1884
bsg57
g26
(g18
S'\xb2\x0e)7\xc6?\xea?'
p1885
tp1886
Rp1887
sbag1
(g2
g3
Ntp1888
Rp1889
(dp1890
g7
g8
(g9
(I0
tp1891
g11
tp1892
Rp1893
(I1
(I1
I1
tp1894
g18
I00
S'i\x97px1\rR?'
p1895
tp1896
bsg23
F12.516114626244015
sg24
F16.294735271678586
sg25
g34
sg35
I0
sg36
I01
sg37
F12.581491621072868
sg38
I78
sg39
g40
sg41
g8
(g9
(I0
tp1897
g11
tp1898
Rp1899
(I1
(I1
I1
tp1900
g18
I00
S'\xfd\xbcmC-\xc2fA'
p1901
tp1902
bsg48
F0.13075398965770546
sg49
F0.050000000000000003
sg50
g8
(g9
(I0
tp1903
g11
tp1904
Rp1905
(I1
(I1
I1
tp1906
g18
I00
S'\x00\x00\x00\xe0MbP?'
p1907
tp1908
bsg57
g26
(g18
S'\xda?Wd\x00\xf7\xe6?'
p1909
tp1910
Rp1911
sbag1
(g2
g3
Ntp1912
Rp1913
(dp1914
g7
g8
(g9
(I0
tp1915
g11
tp1916
Rp1917
(I1
(I1
I1
tp1918
g18
I00
S'\xecN\x04 i\x80L?'
p1919
tp1920
bsg23
F10.48225758962916
sg24
F15.766670174342622
sg25
g34
sg35
I0
sg36
I01
sg37
F10.539614687269495
sg38
I79
sg39
g40
sg41
g8
(g9
(I0
tp1921
g11
tp1922
Rp1923
(I1
(I1
I1
tp1924
g18
I00
S':_\xec\xb8\xea\xd7ZA'
p1925
tp1926
bsg48
F0.11471419528066917
sg49
F0.050000000000000003
sg50
g8
(g9
(I0
tp1927
g11
tp1928
Rp1929
(I1
(I1
I1
tp1930
g18
I00
S'\x00\x00\x00\xe0MbP?'
p1931
tp1932
bsg57
g26
(g18
S'\xf5&\x02e\xce\x83\xe7?'
p1933
tp1934
Rp1935
sbag1
(g2
g3
Ntp1936
Rp1937
(dp1938
g7
g8
(g9
(I0
tp1939
g11
tp1940
Rp1941
(I1
(I1
I1
tp1942
g18
I00
S'\xaajMg\x82\xa8S?'
p1943
tp1944
bsg23
F10.024925817612354
sg24
F17.053462738612964
sg25
g34
sg35
I0
sg36
I01
sg37
F10.594978824218433
sg38
I80
sg39
g40
sg41
g8
(g9
(I0
tp1945
g11
tp1946
Rp1947
(I1
(I1
I1
tp1948
g18
I00
S'\xde\xab\xcc\xec\x10MxA'
p1949
tp1950
bsg48
F1.1401060132121579
sg49
F0.050000000000000003
sg50
g8
(g9
(I0
tp1951
g11
tp1952
Rp1953
(I1
(I1
I1
tp1954
g18
I00
S'\x00\x00\x00\xe0MbP?'
p1955
tp1956
bsg57
g26
(g18
S'NzZ\xbf\xc2G\xd2?'
p1957
tp1958
Rp1959
sbag1
(g2
g3
Ntp1960
Rp1961
(dp1962
g7
g8
(g9
(I0
tp1963
g11
tp1964
Rp1965
(I1
(I1
I1
tp1966
g18
I00
S'\xeeMW[m\xe8P?'
p1967
tp1968
bsg23
F12.02236627325094
sg24
F15.572696785396397
sg25
g34
sg35
I0
sg36
I01
sg37
F12.024899475030679
sg38
I81
sg39
g40
sg41
g8
(g9
(I0
tp1969
g11
tp1970
Rp1971
(I1
(I1
I1
tp1972
g18
I00
S'`gX`B\x1cVA'
p1973
tp1974
bsg48
F0.0050664035594785162
sg49
F0.050000000000000003
sg50
g8
(g9
(I0
tp1975
g11
tp1976
Rp1977
(I1
(I1
I1
tp1978
g18
I00
S'\x00\x00\x00\xe0MbP?'
p1979
tp1980
bsg57
g26
(g18
S's9\xc4E&/\xee?'
p1981
tp1982
Rp1983
sbag1
(g2
g3
Ntp1984
Rp1985
(dp1986
g7
g8
(g9
(I0
tp1987
g11
tp1988
Rp1989
(I1
(I1
I1
tp1990
g18
I00
S'\x0eN\xe5\xd11\xeaW?'
p1991
tp1992
bsg23
F12.25887718400536
sg24
F15.0420052182542
sg25
g34
sg35
I0
sg36
I01
sg37
F12.759905721760122
sg38
I82
sg39
g40
sg41
g8
(g9
(I0
tp1993
g11
tp1994
Rp1995
(I1
(I1
I1
tp1996
g18
I00
S'\xa7(\xc1\xfa\xb4\x02JA'
p1997
tp1998
bsg48
F1.0020570755095228
sg49
F0.050000000000000003
sg50
g8
(g9
(I0
tp1999
g11
tp2000
Rp2001
(I1
(I1
I1
tp2002
g18
I00
S'\x00\x00\x00\xe0MbP?'
p2003
tp2004
bsg57
g26
(g18
S"\x1e\xa9o'\xabF\xd4?"
p2005
tp2006
Rp2007
sbag1
(g2
g3
Ntp2008
Rp2009
(dp2010
g7
g8
(g9
(I0
tp2011
g11
tp2012
Rp2013
(I1
(I1
I1
tp2014
g18
I00
S'#\x07\xa2\xa5\x19<P?'
p2015
tp2016
bsg23
F12.370095034496975
sg24
F16.30746704792389
sg25
g34
sg35
I0
sg36
I01
sg37
F12.370993756935338
sg38
I83
sg39
g40
sg41
g8
(g9
(I0
tp2017
g11
tp2018
Rp2019
(I1
(I1
I1
tp2020
g18
I00
S'P{\x89\x1f\xd4\x0cgA'
p2021
tp2022
bsg48
F0.0017974448767255069
sg49
F0.050000000000000003
sg50
g8
(g9
(I0
tp2023
g11
tp2024
Rp2025
(I1
(I1
I1
tp2026
g18
I00
S'\x00\x00\x00\xe0MbP?'
p2027
tp2028
bsg57
g26
(g18
S'\x12\x83\x10,\xf8\xea\xee?'
p2029
tp2030
Rp2031
sbag1
(g2
g3
Ntp2032
Rp2033
(dp2034
g7
g8
(g9
(I0
tp2035
g11
tp2036
Rp2037
(I1
(I1
I1
tp2038
g18
I00
S'\xbd\x0e\x880\xaf\xa7R?'
p2039
tp2040
bsg23
F9.4907310764678847
sg24
F16.219114841127876
sg25
g34
sg35
I0
sg36
I01
sg37
F9.6047209522023245
sg38
I84
sg39
g40
sg41
g8
(g9
(I0
tp2041
g11
tp2042
Rp2043
(I1
(I1
I1
tp2044
g18
I00
S'T\xc1\xe9V\xd8\x19eA'
p2045
tp2046
bsg48
F0.2279797514688795
sg49
F0.050000000000000003
sg50
g8
(g9
(I0
tp2047
g11
tp2048
Rp2049
(I1
(I1
I1
tp2050
g18
I00
S'\x00\x00\x00\xe0MbP?'
p2051
tp2052
bsg57
g26
(g18
S'\xce\x96\xf1z\xbfA\xe4?'
p2053
tp2054
Rp2055
sbag1
(g2
g3
Ntp2056
Rp2057
(dp2058
g7
g8
(g9
(I0
tp2059
g11
tp2060
Rp2061
(I1
(I1
I1
tp2062
g18
I00
S':\xc5A^\xc5Xg?'
p2063
tp2064
bsg23
F11.572537775231771
sg24
F12.104739972701093
sg25
g34
sg35
I0
sg36
I01
sg37
F12.940989360998493
sg38
I85
sg39
g40
sg41
g8
(g9
(I0
tp2065
g11
tp2066
Rp2067
(I1
(I1
I1
tp2068
g18
I00
S'\\nQ\xca\xb3\x0f\x06A'
p2069
tp2070
bsg48
F2.7369031715334451
sg49
F0.050000000000000003
sg50
g8
(g9
(I0
tp2071
g11
tp2072
Rp2073
(I1
(I1
I1
tp2074
g18
I00
S'\x00\x00\x00\xe0MbP?'
p2075
tp2076
bsg57
g26
(g18
S'@\xa3K\x9c\x1b\x1a\xb9?'
p2077
tp2078
Rp2079
sbag1
(g2
g3
Ntp2080
Rp2081
(dp2082
g7
g8
(g9
(I0
tp2083
g11
tp2084
Rp2085
(I1
(I1
I1
tp2086
g18
I00
S'myA\xa8\xabud?'
p2087
tp2088
bsg23
F9.8372223497284992
sg24
F11.928193873638062
sg25
g34
sg35
I0
sg36
I01
sg37
F10.388541597022897
sg38
I86
sg39
g40
sg41
g8
(g9
(I0
tp2089
g11
tp2090
Rp2091
(I1
(I1
I1
tp2092
g18
I00
S'Sg\xf8\xcf\xad}\x02A'
p2093
tp2094
bsg48
F1.1026384945887955
sg49
F0.050000000000000003
sg50
g8
(g9
(I0
tp2095
g11
tp2096
Rp2097
(I1
(I1
I1
tp2098
g18
I00
S'\x00\x00\x00\xe0MbP?'
p2099
tp2100
bsg57
g26
(g18
S'\x92\xe1\xf5\xe2\xc7\xcb\xd2?'
p2101
tp2102
Rp2103
sbag1
(g2
g3
Ntp2104
Rp2105
(dp2106
g7
g8
(g9
(I0
tp2107
g11
tp2108
Rp2109
(I1
(I1
I1
tp2110
g18
I00
S'R^\xd4\xe1\xe2\xcdL?'
p2111
tp2112
bsg23
F10.085142193932249
sg24
F16.124689408913024
sg25
g34
sg35
I0
sg36
I01
sg37
F10.156838071899116
sg38
I87
sg39
g40
sg41
g8
(g9
(I0
tp2113
g11
tp2114
Rp2115
(I1
(I1
I1
tp2116
g18
I00
S'\x1f\x8fHn\x1d3cA'
p2117
tp2118
bsg48
F0.14339175593373454
sg49
F0.050000000000000003
sg50
g8
(g9
(I0
tp2119
g11
tp2120
Rp2121
(I1
(I1
I1
tp2122
g18
I00
S'\x00\x00\x00\xe0MbP?'
p2123
tp2124
bsg57
g26
(g18
S'>\xe5\xa8\xe4\xcd\x8e\xe6?'
p2125
tp2126
Rp2127
sbag1
(g2
g3
Ntp2128
Rp2129
(dp2130
g7
g8
(g9
(I0
tp2131
g11
tp2132
Rp2133
(I1
(I1
I1
tp2134
g18
I00
S'\x1e1\x0c \xeb\x8b`?'
p2135
tp2136
bsg23
F12.643182996740293
sg24
F12.924759924138675
sg25
g34
sg35
I0
sg36
I01
sg37
F13.10767309262885
sg38
I88
sg39
g40
sg41
g8
(g9
(I0
tp2137
g11
tp2138
Rp2139
(I1
(I1
I1
tp2140
g18
I00
S'v\xc9\x1bw\xae\x0b\x19A'
p2141
tp2142
bsg48
F0.92898019177711433
sg49
F0.050000000000000003
sg50
g8
(g9
(I0
tp2143
g11
tp2144
Rp2145
(I1
(I1
I1
tp2146
g18
I00
S'\x00\x00\x00\xe0MbP?'
p2147
tp2148
bsg57
g26
(g18
S'\xbe\x02p\xf8\xbcr\xd5?'
p2149
tp2150
Rp2151
sbag1
(g2
g3
Ntp2152
Rp2153
(dp2154
g7
g8
(g9
(I0
tp2155
g11
tp2156
Rp2157
(I1
(I1
I1
tp2158
g18
I00
S'\x08,p1\x8c\xb86?'
p2159
tp2160
bsg23
F13.026348537648488
sg24
F15.893149851739588
sg25
g34
sg35
I0
sg36
I01
sg37
F14.130356491707145
sg38
I89
sg39
g40
sg41
g8
(g9
(I0
tp2161
g11
tp2162
Rp2163
(I1
(I1
I1
tp2164
g18
I00
S"\x8f'\x16\xc0nv^A"
p2165
tp2166
bsg48
F2.2080159081173143
sg49
F0.050000000000000003
sg50
g8
(g9
(I0
tp2167
g11
tp2168
Rp2169
(I1
(I1
I1
tp2170
g18
I00
S'\x00\x00\x00\xe0MbP?'
p2171
tp2172
bsg57
g26
(g18
S'/{\xdd1\xe3\x92\xc1?'
p2173
tp2174
Rp2175
sbag1
(g2
g3
Ntp2176
Rp2177
(dp2178
g7
g8
(g9
(I0
tp2179
g11
tp2180
Rp2181
(I1
(I1
I1
tp2182
g18
I00
S'\xdb\x18\xdf\x88\xabsN?'
p2183
tp2184
bsg23
F10.398956862597505
sg24
F17.432078339929319
sg25
g34
sg35
I0
sg36
I01
sg37
F10.483440766846115
sg38
I90
sg39
g40
sg41
g8
(g9
(I0
tp2185
g11
tp2186
Rp2187
(I1
(I1
I1
tp2188
g18
I00
S'\x92M\x8a&1\xbe\x81A'
p2189
tp2190
bsg48
F0.16896780849722148
sg49
F0.050000000000000003
sg50
g8
(g9
(I0
tp2191
g11
tp2192
Rp2193
(I1
(I1
I1
tp2194
g18
I00
S'\x00\x00\x00\xe0MbP?'
p2195
tp2196
bsg57
g26
(g18
S'\xd6\xe1k\x11\x01\xcb\xe5?'
p2197
tp2198
Rp2199
sbag1
(g2
g3
Ntp2200
Rp2201
(dp2202
g7
g8
(g9
(I0
tp2203
g11
tp2204
Rp2205
(I1
(I1
I1
tp2206
g18
I00
S'\x0e\xeb!*\x1c\x8bP?'
p2207
tp2208
bsg23
F14.350133175059627
sg24
F18.35779370114259
sg25
g34
sg35
I0
sg36
I01
sg37
F14.351251439011655
sg38
I91
sg39
g40
sg41
g8
(g9
(I0
tp2209
g11
tp2210
Rp2211
(I1
(I1
I1
tp2212
g18
I00
S'd\xd6\t\xe8\x80c\x96A'
p2213
tp2214
bsg48
F0.0022365279040563735
sg49
F0.050000000000000003
sg50
g8
(g9
(I0
tp2215
g11
tp2216
Rp2217
(I1
(I1
I1
tp2218
g18
I00
S'\x00\x00\x00\xe0MbP?'
p2219
tp2220
bsg57
g26
(g18
S'+$\x0b\x94\x00\xcb\xee?'
p2221
tp2222
Rp2223
sbag1
(g2
g3
Ntp2224
Rp2225
(dp2226
g7
g8
(g9
(I0
tp2227
g11
tp2228
Rp2229
(I1
(I1
I1
tp2230
g18
I00
S'\xcc\xb4\x9b\xfb\x1e\x91K?'
p2231
tp2232
bsg23
F9.5529104751983862
sg24
F16.20493547748017
sg25
g34
sg35
I0
sg36
I01
sg37
F9.6802289908394705
sg38
I92
sg39
g40
sg41
g8
(g9
(I0
tp2233
g11
tp2234
Rp2235
(I1
(I1
I1
tp2236
g18
I00
S'\xd7\xc6\x84s\xca\xcddA'
p2237
tp2238
bsg48
F0.25463703128216864
sg49
F0.050000000000000003
sg50
g8
(g9
(I0
tp2239
g11
tp2240
Rp2241
(I1
(I1
I1
tp2242
g18
I00
S'\x00\x00\x00\xe0MbP?'
p2243
tp2244
bsg57
g26
(g18
S'\xc4\xb7I7|\xa4\xe3?'
p2245
tp2246
Rp2247
sbag1
(g2
g3
Ntp2248
Rp2249
(dp2250
g7
g8
(g9
(I0
tp2251
g11
tp2252
Rp2253
(I1
(I1
I1
tp2254
g18
I00
S'\xc0K3\xd1D\x92N?'
p2255
tp2256
bsg23
F13.15974322453277
sg24
F17.917697924894927
sg25
g34
sg35
I0
sg36
I01
sg37
F13.285272180576044
sg38
I93
sg39
g40
sg41
g8
(g9
(I0
tp2257
g11
tp2258
Rp2259
(I1
(I1
I1
tp2260
g18
I00
S'\x8a\xa4:\x13\xe3\xd5\x8cA'
p2261
tp2262
bsg48
F0.25105791208654793
sg49
F0.050000000000000003
sg50
g8
(g9
(I0
tp2263
g11
tp2264
Rp2265
(I1
(I1
I1
tp2266
g18
I00
S'\x00\x00\x00\xe0MbP?'
p2267
tp2268
bsg57
g26
(g18
S'V\x9b\xc7\x1b\xfc\xb8\xe3?'
p2269
tp2270
Rp2271
sbag1
(g2
g3
Ntp2272
Rp2273
(dp2274
g7
g8
(g9
(I0
tp2275
g11
tp2276
Rp2277
(I1
(I1
I1
tp2278
g18
I00
S'=\xca\xe7\xe0\xbe\x80Q?'
p2279
tp2280
bsg23
F10.362184082639452
sg24
F18.134325810328331
sg25
g34
sg35
I0
sg36
I01
sg37
F10.533537711532899
sg38
I94
sg39
g40
sg41
g8
(g9
(I0
tp2281
g11
tp2282
Rp2283
(I1
(I1
I1
tp2284
g18
I00
S':\xb9\xf5E\xb7\xe7\x91A'
p2285
tp2286
bsg48
F0.34270725778689481
sg49
F0.050000000000000003
sg50
g8
(g9
(I0
tp2287
g11
tp2288
Rp2289
(I1
(I1
I1
tp2290
g18
I00
S'\x00\x00\x00\xe0MbP?'
p2291
tp2292
bsg57
g26
(g18
S'\xd1\xfd\xcc\x80Z\xdd\xe1?'
p2293
tp2294
Rp2295
sbag1
(g2
g3
Ntp2296
Rp2297
(dp2298
g7
g8
(g9
(I0
tp2299
g11
tp2300
Rp2301
(I1
(I1
I1
tp2302
g18
I00
S'\xda$J\xa0u\xeaP?'
p2303
tp2304
bsg23
F13.503103200515707
sg24
F15.813161263492226
sg25
g34
sg35
I0
sg36
I01
sg37
F13.506442635573199
sg38
I95
sg39
g40
sg41
g8
(g9
(I0
tp2305
g11
tp2306
Rp2307
(I1
(I1
I1
tp2308
g18
I00
S'\xa1F\xedY\xf1\x1e\\A'
p2309
tp2310
bsg48
F0.006678870114985358
sg49
F0.050000000000000003
sg50
g8
(g9
(I0
tp2311
g11
tp2312
Rp2313
(I1
(I1
I1
tp2314
g18
I00
S'\x00\x00\x00\xe0MbP?'
p2315
tp2316
bsg57
g26
(g18
S'\x17&E\xeak\xea\xed?'
p2317
tp2318
Rp2319
sbag1
(g2
g3
Ntp2320
Rp2321
(dp2322
g7
g8
(g9
(I0
tp2323
g11
tp2324
Rp2325
(I1
(I1
I1
tp2326
g18
I00
S'\x89I\xa6\x88 \xd3Q?'
p2327
tp2328
bsg23
F15.720429835329584
sg24
F13.973552974704509
sg25
g34
sg35
I0
sg36
I01
sg37
F15.724895053367931
sg38
I96
sg39
g40
sg41
g8
(g9
(I0
tp2329
g11
tp2330
Rp2331
(I1
(I1
I1
tp2332
g18
I00
S'\xb8\xb4p\xdf\x0f\xdf1A'
p2333
tp2334
bsg48
F0.0089304360766924162
sg49
F0.050000000000000003
sg50
g8
(g9
(I0
tp2335
g11
tp2336
Rp2337
(I1
(I1
I1
tp2338
g18
I00
S'\x00\x00\x00\xe0MbP?'
p2339
tp2340
bsg57
g26
(g18
S'b\xc1\x7f\xf1;\x97\xed?'
p2341
tp2342
Rp2343
sbag1
(g2
g3
Ntp2344
Rp2345
(dp2346
g7
g8
(g9
(I0
tp2347
g11
tp2348
Rp2349
(I1
(I1
I1
tp2350
g18
I00
S'\x17\x8c\x13l\xcf\x81I?'
p2351
tp2352
bsg23
F10.457104240224904
sg24
F16.89421411949175
sg25
g34
sg35
I0
sg36
I01
sg37
F10.909870790174065
sg38
I97
sg39
g40
sg41
g8
(g9
(I0
tp2353
g11
tp2354
Rp2355
(I1
(I1
I1
tp2356
g18
I00
S'\x92\xb1\xe5C:\xb9tA'
p2357
tp2358
bsg48
F0.90553309989832087
sg49
F0.050000000000000003
sg50
g8
(g9
(I0
tp2359
g11
tp2360
Rp2361
(I1
(I1
I1
tp2362
g18
I00
S'\x00\x00\x00\xe0MbP?'
p2363
tp2364
bsg57
g26
(g18
S'\x1er$\t\xe6\xd7\xd5?'
p2365
tp2366
Rp2367
sbag1
(g2
g3
Ntp2368
Rp2369
(dp2370
g7
g8
(g9
(I0
tp2371
g11
tp2372
Rp2373
(I1
(I1
I1
tp2374
g18
I00
S'8th\xa3\xf9\xcaI?'
p2375
tp2376
bsg23
F10.123461043443694
sg24
F17.12896332821547
sg25
g34
sg35
I0
sg36
I01
sg37
F10.658901897240638
sg38
I98
sg39
g40
sg41
g8
(g9
(I0
tp2377
g11
tp2378
Rp2379
(I1
(I1
I1
tp2380
g18
I00
S'L\xdb\x1a7\xf24zA'
p2381
tp2382
bsg48
F1.0708817075938875
sg49
F0.050000000000000003
sg50
g8
(g9
(I0
tp2383
g11
tp2384
Rp2385
(I1
(I1
I1
tp2386
g18
I00
S'\x00\x00\x00\xe0MbP?'
p2387
tp2388
bsg57
g26
(g18
S'\xd0\x1d\x08\xb8m?\xd3?'
p2389
tp2390
Rp2391
sbag1
(g2
g3
Ntp2392
Rp2393
(dp2394
g7
g8
(g9
(I0
tp2395
g11
tp2396
Rp2397
(I1
(I1
I1
tp2398
g18
I00
S'(\xa1:\xc3\xf0\xdcQ?'
p2399
tp2400
bsg23
F10.386500132071768
sg24
F16.617051385280195
sg25
g34
sg35
I0
sg36
I01
sg37
F10.452850755058511
sg38
I99
sg39
g40
sg41
g8
(g9
(I0
tp2401
g11
tp2402
Rp2403
(I1
(I1
I1
tp2404
g18
I00
S'\xbb\x0c8\x95\xfeioA'
p2405
tp2406
bsg48
F0.13270124597348598
sg49
F0.050000000000000003
sg50
g8
(g9
(I0
tp2407
g11
tp2408
Rp2409
(I1
(I1
I1
tp2410
g18
I00
S'\x00\x00\x00\xe0MbP?'
p2411
tp2412
bsg57
g26
(g18
S'l\xe4\xed\xbc\x95\xe6\xe6?'
p2413
tp2414
Rp2415
sbag1
(g2
g3
Ntp2416
Rp2417
(dp2418
g7
g8
(g9
(I0
tp2419
g11
tp2420
Rp2421
(I1
(I1
I1
tp2422
g18
I00
S'`\xbaM\xe1]\xe5a?'
p2423
tp2424
bsg23
F10.565084144408919
sg24
F-13.33821485663039
sg25
g34
sg35
I0
sg36
I01
sg37
F10.716070801248875
sg38
I100
sg39
g40
sg41
g8
(g9
(I0
tp2425
g11
tp2426
Rp2427
(I1
(I1
I1
tp2428
g18
I00
S'\x00\x00\x00\xd7=\n\xbb\xbe'
p2429
tp2430
bsg48
F0.30197331367991254
sg49
F0.050000000000000003
sg50
g8
(g9
(I0
tp2431
g11
tp2432
Rp2433
(I1
(I1
I1
tp2434
g18
I00
S'\x00\x00\x00\xe0MbP?'
p2435
tp2436
bsg57
g26
(g18
S'\x0e\xe0\\Y\r\xa5\xe2?'
p2437
tp2438
Rp2439
sba.